	.file	"basics.cpp"
	.text
.Ltext0:
	.section	.rodata
	.type	_ZStL19piecewise_construct, @object
	.size	_ZStL19piecewise_construct, 1
_ZStL19piecewise_construct:
	.zero	1
	.local	_ZStL8__ioinit
	.comm	_ZStL8__ioinit,1,1
.LC0:
	.string	"a is not null"
.LC1:
	.string	" = "
.LC2:
	.string	"a is null "
	.text
	.globl	main
	.type	main, @function
main:
.LFB1518:
	.file 1 "basics.cpp"
	.loc 1 5 12
	.cfi_startproc
	pushq	%rbp
	.cfi_def_cfa_offset 16
	.cfi_offset 6, -16
	movq	%rsp, %rbp
	.cfi_def_cfa_register 6
	subq	$16, %rsp
	.loc 1 5 12
	movq	%fs:40, %rax
	movq	%rax, -8(%rbp)
	xorl	%eax, %eax
	.loc 1 6 10
	movq	$0, -16(%rbp)
	.loc 1 8 10
	movq	-16(%rbp), %rax
	.loc 1 8 5
	testq	%rax, %rax
	je	.L2
	.loc 1 8 20 discriminator 1
	leaq	.LC0(%rip), %rsi
	leaq	_ZSt4cout(%rip), %rdi
	call	_ZStlsISt11char_traitsIcEERSt13basic_ostreamIcT_ES5_PKc@PLT
	movq	%rax, %rdx
	.loc 1 8 40 discriminator 1
	leaq	-16(%rbp), %rax
	movq	%rax, %rsi
	movq	%rdx, %rdi
	call	_ZNSolsEPKv@PLT
	.loc 1 8 45 discriminator 1
	leaq	.LC1(%rip), %rsi
	movq	%rax, %rdi
	call	_ZStlsISt11char_traitsIcEERSt13basic_ostreamIcT_ES5_PKc@PLT
	movq	%rax, %rdx
	.loc 1 8 55 discriminator 1
	movq	-16(%rbp), %rax
	movl	(%rax), %eax
	movl	%eax, %esi
	movq	%rdx, %rdi
	call	_ZNSolsEi@PLT
	movq	%rax, %rdx
	.loc 1 8 60 discriminator 1
	movq	_ZSt4endlIcSt11char_traitsIcEERSt13basic_ostreamIT_T0_ES6_@GOTPCREL(%rip), %rax
	movq	%rax, %rsi
	movq	%rdx, %rdi
	call	_ZNSolsEPFRSoS_E@PLT
	jmp	.L3
.L2:
	.loc 1 9 18
	leaq	.LC2(%rip), %rsi
	leaq	_ZSt4cout(%rip), %rdi
	call	_ZStlsISt11char_traitsIcEERSt13basic_ostreamIcT_ES5_PKc@PLT
	movq	%rax, %rdx
	.loc 1 9 35
	leaq	-16(%rbp), %rax
	movq	%rax, %rsi
	movq	%rdx, %rdi
	call	_ZNSolsEPKv@PLT
	movq	%rax, %rdx
	.loc 1 9 40
	movq	_ZSt4endlIcSt11char_traitsIcEERSt13basic_ostreamIT_T0_ES6_@GOTPCREL(%rip), %rax
	movq	%rax, %rsi
	movq	%rdx, %rdi
	call	_ZNSolsEPFRSoS_E@PLT
.L3:
	.loc 1 12 1
	movl	$0, %eax
	movq	-8(%rbp), %rcx
	xorq	%fs:40, %rcx
	je	.L5
	call	__stack_chk_fail@PLT
.L5:
	leave
	.cfi_def_cfa 7, 8
	ret
	.cfi_endproc
.LFE1518:
	.size	main, .-main
	.type	_Z41__static_initialization_and_destruction_0ii, @function
_Z41__static_initialization_and_destruction_0ii:
.LFB2008:
	.loc 1 12 1
	.cfi_startproc
	pushq	%rbp
	.cfi_def_cfa_offset 16
	.cfi_offset 6, -16
	movq	%rsp, %rbp
	.cfi_def_cfa_register 6
	subq	$16, %rsp
	movl	%edi, -4(%rbp)
	movl	%esi, -8(%rbp)
	.loc 1 12 1
	cmpl	$1, -4(%rbp)
	jne	.L8
	.loc 1 12 1 is_stmt 0 discriminator 1
	cmpl	$65535, -8(%rbp)
	jne	.L8
	.file 2 "/usr/include/c++/8/iostream"
	.loc 2 74 25 is_stmt 1
	leaq	_ZStL8__ioinit(%rip), %rdi
	call	_ZNSt8ios_base4InitC1Ev@PLT
	leaq	__dso_handle(%rip), %rdx
	leaq	_ZStL8__ioinit(%rip), %rsi
	movq	_ZNSt8ios_base4InitD1Ev@GOTPCREL(%rip), %rax
	movq	%rax, %rdi
	call	__cxa_atexit@PLT
.L8:
	.loc 1 12 1
	nop
	leave
	.cfi_def_cfa 7, 8
	ret
	.cfi_endproc
.LFE2008:
	.size	_Z41__static_initialization_and_destruction_0ii, .-_Z41__static_initialization_and_destruction_0ii
	.type	_GLOBAL__sub_I_main, @function
_GLOBAL__sub_I_main:
.LFB2009:
	.loc 1 12 1
	.cfi_startproc
	pushq	%rbp
	.cfi_def_cfa_offset 16
	.cfi_offset 6, -16
	movq	%rsp, %rbp
	.cfi_def_cfa_register 6
	.loc 1 12 1
	movl	$65535, %esi
	movl	$1, %edi
	call	_Z41__static_initialization_and_destruction_0ii
	popq	%rbp
	.cfi_def_cfa 7, 8
	ret
	.cfi_endproc
.LFE2009:
	.size	_GLOBAL__sub_I_main, .-_GLOBAL__sub_I_main
	.section	.init_array,"aw"
	.align 8
	.quad	_GLOBAL__sub_I_main
	.text
.Letext0:
	.file 3 "/usr/include/c++/8/cwchar"
	.file 4 "/usr/include/c++/8/new"
	.file 5 "/usr/include/c++/8/bits/exception_ptr.h"
	.file 6 "/usr/include/c++/8/type_traits"
	.file 7 "/usr/include/x86_64-linux-gnu/c++/8/bits/c++config.h"
	.file 8 "/usr/include/c++/8/bits/cpp_type_traits.h"
	.file 9 "/usr/include/c++/8/bits/stl_pair.h"
	.file 10 "/usr/include/c++/8/debug/debug.h"
	.file 11 "/usr/include/c++/8/bits/char_traits.h"
	.file 12 "/usr/include/c++/8/cstdint"
	.file 13 "/usr/include/c++/8/clocale"
	.file 14 "/usr/include/c++/8/cstdlib"
	.file 15 "/usr/include/c++/8/cstdio"
	.file 16 "/usr/include/c++/8/bits/basic_string.h"
	.file 17 "/usr/include/c++/8/system_error"
	.file 18 "/usr/include/c++/8/bits/ios_base.h"
	.file 19 "/usr/include/c++/8/cwctype"
	.file 20 "/usr/include/c++/8/iosfwd"
	.file 21 "/usr/include/c++/8/bits/predefined_ops.h"
	.file 22 "/usr/include/c++/8/ext/new_allocator.h"
	.file 23 "/usr/include/c++/8/ext/numeric_traits.h"
	.file 24 "/usr/lib/gcc/x86_64-linux-gnu/8/include/stddef.h"
	.file 25 "<built-in>"
	.file 26 "/usr/include/x86_64-linux-gnu/bits/types/wint_t.h"
	.file 27 "/usr/include/x86_64-linux-gnu/bits/types/__mbstate_t.h"
	.file 28 "/usr/include/x86_64-linux-gnu/bits/types/mbstate_t.h"
	.file 29 "/usr/include/x86_64-linux-gnu/bits/types/__FILE.h"
	.file 30 "/usr/include/x86_64-linux-gnu/bits/types/struct_FILE.h"
	.file 31 "/usr/include/x86_64-linux-gnu/bits/types/FILE.h"
	.file 32 "/usr/include/wchar.h"
	.file 33 "/usr/include/x86_64-linux-gnu/bits/types/struct_tm.h"
	.file 34 "/usr/include/x86_64-linux-gnu/bits/types.h"
	.file 35 "/usr/include/x86_64-linux-gnu/bits/stdint-intn.h"
	.file 36 "/usr/include/x86_64-linux-gnu/bits/stdint-uintn.h"
	.file 37 "/usr/include/stdint.h"
	.file 38 "/usr/include/locale.h"
	.file 39 "/usr/include/time.h"
	.file 40 "/usr/include/x86_64-linux-gnu/c++/8/bits/atomic_word.h"
	.file 41 "/usr/include/stdlib.h"
	.file 42 "/usr/include/x86_64-linux-gnu/bits/types/__fpos_t.h"
	.file 43 "/usr/include/stdio.h"
	.file 44 "/usr/include/x86_64-linux-gnu/bits/sys_errlist.h"
	.file 45 "/usr/include/errno.h"
	.file 46 "/usr/include/x86_64-linux-gnu/bits/wctype-wchar.h"
	.file 47 "/usr/include/wctype.h"
	.section	.note.GNU-stack,"",@progbits
