	.file	"reference.cpp"
	.text
.Ltext0:
	.section	.rodata
	.type	_ZStL19piecewise_construct, @object
	.size	_ZStL19piecewise_construct, 1
_ZStL19piecewise_construct:
	.zero	1
	.local	_ZStL8__ioinit
	.comm	_ZStL8__ioinit,1,1
	.text
	.globl	_Z4swapRiS_
	.type	_Z4swapRiS_, @function
_Z4swapRiS_:
.LFB1518:
	.file 1 "reference.cpp"
	.loc 1 6 26
	.cfi_startproc
	pushq	%rbp
	.cfi_def_cfa_offset 16
	.cfi_offset 6, -16
	movq	%rsp, %rbp
	.cfi_def_cfa_register 6
	movq	%rdi, -24(%rbp)
	movq	%rsi, -32(%rbp)
	.loc 1 7 9
	movq	-24(%rbp), %rax
	movl	(%rax), %eax
	movl	%eax, -4(%rbp)
	.loc 1 8 9
	movq	-32(%rbp), %rax
	movl	(%rax), %edx
	.loc 1 8 7
	movq	-24(%rbp), %rax
	movl	%edx, (%rax)
	.loc 1 9 7
	movq	-32(%rbp), %rax
	movl	-4(%rbp), %edx
	movl	%edx, (%rax)
	.loc 1 10 1
	nop
	popq	%rbp
	.cfi_def_cfa 7, 8
	ret
	.cfi_endproc
.LFE1518:
	.size	_Z4swapRiS_, .-_Z4swapRiS_
	.section	.rodata
.LC0:
	.string	"Stack b="
	.text
	.globl	_Z3funv
	.type	_Z3funv, @function
_Z3funv:
.LFB1519:
	.loc 1 12 12
	.cfi_startproc
	pushq	%rbp
	.cfi_def_cfa_offset 16
	.cfi_offset 6, -16
	movq	%rsp, %rbp
	.cfi_def_cfa_register 6
	subq	$16, %rsp
	.loc 1 12 12
	movq	%fs:40, %rax
	movq	%rax, -8(%rbp)
	xorl	%eax, %eax
	.loc 1 13 9
	movl	$100, -12(%rbp)
	.loc 1 14 13
	leaq	.LC0(%rip), %rsi
	leaq	_ZSt4cout(%rip), %rdi
	call	_ZStlsISt11char_traitsIcEERSt13basic_ostreamIcT_ES5_PKc@PLT
	movq	%rax, %rdx
	.loc 1 14 28
	leaq	-12(%rbp), %rax
	movq	%rax, %rsi
	movq	%rdx, %rdi
	call	_ZNSolsEPKv@PLT
	.loc 1 15 12
	movl	$0, %eax
	.loc 1 16 1
	movq	-8(%rbp), %rcx
	xorq	%fs:40, %rcx
	je	.L4
	call	__stack_chk_fail@PLT
.L4:
	leave
	.cfi_def_cfa 7, 8
	ret
	.cfi_endproc
.LFE1519:
	.size	_Z3funv, .-_Z3funv
	.section	.rodata
.LC1:
	.string	"base class \n"
	.section	.text._ZN4temo4showEv,"axG",@progbits,_ZN4temo4showEv,comdat
	.align 2
	.weak	_ZN4temo4showEv
	.type	_ZN4temo4showEv, @function
_ZN4temo4showEv:
.LFB1520:
	.loc 1 20 18
	.cfi_startproc
	pushq	%rbp
	.cfi_def_cfa_offset 16
	.cfi_offset 6, -16
	movq	%rsp, %rbp
	.cfi_def_cfa_register 6
	subq	$16, %rsp
	movq	%rdi, -8(%rbp)
	.loc 1 21 17
	leaq	.LC1(%rip), %rsi
	leaq	_ZSt4cout(%rip), %rdi
	call	_ZStlsISt11char_traitsIcEERSt13basic_ostreamIcT_ES5_PKc@PLT
	.loc 1 22 5
	nop
	leave
	.cfi_def_cfa 7, 8
	ret
	.cfi_endproc
.LFE1520:
	.size	_ZN4temo4showEv, .-_ZN4temo4showEv
	.section	.rodata
.LC2:
	.string	"derived class \n"
	.section	.text._ZN12temo_derived4showEv,"axG",@progbits,_ZN12temo_derived4showEv,comdat
	.align 2
	.weak	_ZN12temo_derived4showEv
	.type	_ZN12temo_derived4showEv, @function
_ZN12temo_derived4showEv:
.LFB1521:
	.loc 1 26 10
	.cfi_startproc
	pushq	%rbp
	.cfi_def_cfa_offset 16
	.cfi_offset 6, -16
	movq	%rsp, %rbp
	.cfi_def_cfa_register 6
	subq	$16, %rsp
	movq	%rdi, -8(%rbp)
	.loc 1 27 17
	leaq	.LC2(%rip), %rsi
	leaq	_ZSt4cout(%rip), %rdi
	call	_ZStlsISt11char_traitsIcEERSt13basic_ostreamIcT_ES5_PKc@PLT
	.loc 1 28 5
	nop
	leave
	.cfi_def_cfa 7, 8
	ret
	.cfi_endproc
.LFE1521:
	.size	_ZN12temo_derived4showEv, .-_ZN12temo_derived4showEv
	.text
	.globl	_Z12show_generalR4temo
	.type	_Z12show_generalR4temo, @function
_Z12show_generalR4temo:
.LFB1522:
	.loc 1 30 30
	.cfi_startproc
	pushq	%rbp
	.cfi_def_cfa_offset 16
	.cfi_offset 6, -16
	movq	%rsp, %rbp
	.cfi_def_cfa_register 6
	subq	$16, %rsp
	movq	%rdi, -8(%rbp)
	.loc 1 31 14
	movq	-8(%rbp), %rax
	movq	(%rax), %rax
	movq	(%rax), %rax
	.loc 1 31 13
	movq	-8(%rbp), %rdx
	movq	%rdx, %rdi
	call	*%rax
.LVL0:
	.loc 1 32 1
	nop
	leave
	.cfi_def_cfa 7, 8
	ret
	.cfi_endproc
.LFE1522:
	.size	_Z12show_generalR4temo, .-_Z12show_generalR4temo
	.globl	_Z20show_general_pointerP4temo
	.type	_Z20show_general_pointerP4temo, @function
_Z20show_general_pointerP4temo:
.LFB1523:
	.loc 1 33 38
	.cfi_startproc
	pushq	%rbp
	.cfi_def_cfa_offset 16
	.cfi_offset 6, -16
	movq	%rsp, %rbp
	.cfi_def_cfa_register 6
	subq	$16, %rsp
	movq	%rdi, -8(%rbp)
	.loc 1 34 15
	movq	-8(%rbp), %rax
	movq	(%rax), %rax
	movq	(%rax), %rax
	.loc 1 34 14
	movq	-8(%rbp), %rdx
	movq	%rdx, %rdi
	call	*%rax
.LVL1:
	.loc 1 35 1
	nop
	leave
	.cfi_def_cfa 7, 8
	ret
	.cfi_endproc
.LFE1523:
	.size	_Z20show_general_pointerP4temo, .-_Z20show_general_pointerP4temo
	.section	.rodata
.LC3:
	.string	"init b="
.LC4:
	.string	" addr_b="
.LC5:
	.string	"init d="
.LC6:
	.string	" addr_d="
.LC7:
	.string	"init a="
.LC8:
	.string	" addr_a="
.LC9:
	.string	" val_a="
.LC10:
	.string	"init c="
.LC11:
	.string	" addr_c="
.LC12:
	.string	"================playing 1 \n"
.LC13:
	.string	"b="
.LC14:
	.string	"d="
.LC15:
	.string	"a="
.LC16:
	.string	"c="
.LC17:
	.string	" val_c="
	.align 8
.LC18:
	.string	"================playing 2 - SIG11 \n"
	.align 8
.LC19:
	.string	"================playing 3 - SIG11, reference of null *pointer \n"
	.align 8
.LC20:
	.string	"=================playing 4 - cannot declare/compile pointer to reference\n"
	.align 8
.LC21:
	.string	"==================playing 5 - ref to call expected show()\n"
	.text
	.globl	main
	.type	main, @function
main:
.LFB1524:
	.loc 1 37 12
	.cfi_startproc
	pushq	%rbp
	.cfi_def_cfa_offset 16
	.cfi_offset 6, -16
	movq	%rsp, %rbp
	.cfi_def_cfa_register 6
	subq	$48, %rsp
	.loc 1 37 12
	movq	%fs:40, %rax
	movq	%rax, -8(%rbp)
	xorl	%eax, %eax
	.loc 1 38 10
	movq	$0, -40(%rbp)
	.loc 1 38 23
	movl	$10, -48(%rbp)
	.loc 1 38 31
	movl	$30, -44(%rbp)
	.loc 1 39 10
	leaq	-48(%rbp), %rax
	movq	%rax, -16(%rbp)
	.loc 1 44 7
	leaq	-48(%rbp), %rax
	movq	%rax, -40(%rbp)
	.loc 1 45 13
	leaq	.LC3(%rip), %rsi
	leaq	_ZSt4cout(%rip), %rdi
	call	_ZStlsISt11char_traitsIcEERSt13basic_ostreamIcT_ES5_PKc@PLT
	movq	%rax, %rdx
	.loc 1 45 31
	movl	-48(%rbp), %eax
	movl	%eax, %esi
	movq	%rdx, %rdi
	call	_ZNSolsEi@PLT
	leaq	.LC4(%rip), %rsi
	movq	%rax, %rdi
	call	_ZStlsISt11char_traitsIcEERSt13basic_ostreamIcT_ES5_PKc@PLT
	movq	%rax, %rdx
	.loc 1 45 46
	leaq	-48(%rbp), %rax
	movq	%rax, %rsi
	movq	%rdx, %rdi
	call	_ZNSolsEPKv@PLT
	.loc 1 45 51
	movl	$10, %esi
	movq	%rax, %rdi
	call	_ZStlsISt11char_traitsIcEERSt13basic_ostreamIcT_ES5_c@PLT
	.loc 1 46 13
	leaq	.LC5(%rip), %rsi
	leaq	_ZSt4cout(%rip), %rdi
	call	_ZStlsISt11char_traitsIcEERSt13basic_ostreamIcT_ES5_PKc@PLT
	movq	%rax, %rdx
	.loc 1 46 31
	movl	-44(%rbp), %eax
	movl	%eax, %esi
	movq	%rdx, %rdi
	call	_ZNSolsEi@PLT
	leaq	.LC6(%rip), %rsi
	movq	%rax, %rdi
	call	_ZStlsISt11char_traitsIcEERSt13basic_ostreamIcT_ES5_PKc@PLT
	movq	%rax, %rdx
	.loc 1 46 46
	leaq	-44(%rbp), %rax
	movq	%rax, %rsi
	movq	%rdx, %rdi
	call	_ZNSolsEPKv@PLT
	.loc 1 46 51
	movl	$10, %esi
	movq	%rax, %rdi
	call	_ZStlsISt11char_traitsIcEERSt13basic_ostreamIcT_ES5_c@PLT
	.loc 1 47 13
	leaq	.LC7(%rip), %rsi
	leaq	_ZSt4cout(%rip), %rdi
	call	_ZStlsISt11char_traitsIcEERSt13basic_ostreamIcT_ES5_PKc@PLT
	movq	%rax, %rdx
	.loc 1 47 26
	movq	-40(%rbp), %rax
	movq	%rax, %rsi
	movq	%rdx, %rdi
	call	_ZNSolsEPKv@PLT
	.loc 1 47 31
	leaq	.LC8(%rip), %rsi
	movq	%rax, %rdi
	call	_ZStlsISt11char_traitsIcEERSt13basic_ostreamIcT_ES5_PKc@PLT
	movq	%rax, %rdx
	.loc 1 47 46
	leaq	-40(%rbp), %rax
	movq	%rax, %rsi
	movq	%rdx, %rdi
	call	_ZNSolsEPKv@PLT
	.loc 1 47 51
	leaq	.LC9(%rip), %rsi
	movq	%rax, %rdi
	call	_ZStlsISt11char_traitsIcEERSt13basic_ostreamIcT_ES5_PKc@PLT
	movq	%rax, %rdx
	.loc 1 47 68
	movq	-40(%rbp), %rax
	movl	(%rax), %eax
	movl	%eax, %esi
	movq	%rdx, %rdi
	call	_ZNSolsEi@PLT
	movl	$10, %esi
	movq	%rax, %rdi
	call	_ZStlsISt11char_traitsIcEERSt13basic_ostreamIcT_ES5_c@PLT
	.loc 1 48 13
	leaq	.LC10(%rip), %rsi
	leaq	_ZSt4cout(%rip), %rdi
	call	_ZStlsISt11char_traitsIcEERSt13basic_ostreamIcT_ES5_PKc@PLT
	movq	%rax, %rdx
	.loc 1 48 31
	movq	-16(%rbp), %rax
	movl	(%rax), %eax
	movl	%eax, %esi
	movq	%rdx, %rdi
	call	_ZNSolsEi@PLT
	leaq	.LC11(%rip), %rsi
	movq	%rax, %rdi
	call	_ZStlsISt11char_traitsIcEERSt13basic_ostreamIcT_ES5_PKc@PLT
	movq	%rax, %rdx
	.loc 1 48 46
	movq	-16(%rbp), %rax
	movq	%rax, %rsi
	movq	%rdx, %rdi
	call	_ZNSolsEPKv@PLT
	.loc 1 48 51
	movl	$10, %esi
	movq	%rax, %rdi
	call	_ZStlsISt11char_traitsIcEERSt13basic_ostreamIcT_ES5_c@PLT
	.loc 1 49 13
	leaq	.LC12(%rip), %rsi
	leaq	_ZSt4cout(%rip), %rdi
	call	_ZStlsISt11char_traitsIcEERSt13basic_ostreamIcT_ES5_PKc@PLT
	.loc 1 50 7
	movq	-16(%rbp), %rax
	movl	$20, (%rax)
	.loc 1 51 9
	leaq	-44(%rbp), %rdx
	movq	-16(%rbp), %rax
	movq	%rdx, %rsi
	movq	%rax, %rdi
	call	_Z4swapRiS_
	.loc 1 52 13
	leaq	.LC13(%rip), %rsi
	leaq	_ZSt4cout(%rip), %rdi
	call	_ZStlsISt11char_traitsIcEERSt13basic_ostreamIcT_ES5_PKc@PLT
	movq	%rax, %rdx
	.loc 1 52 26
	movl	-48(%rbp), %eax
	movl	%eax, %esi
	movq	%rdx, %rdi
	call	_ZNSolsEi@PLT
	leaq	.LC4(%rip), %rsi
	movq	%rax, %rdi
	call	_ZStlsISt11char_traitsIcEERSt13basic_ostreamIcT_ES5_PKc@PLT
	movq	%rax, %rdx
	.loc 1 52 41
	leaq	-48(%rbp), %rax
	movq	%rax, %rsi
	movq	%rdx, %rdi
	call	_ZNSolsEPKv@PLT
	.loc 1 52 46
	movl	$10, %esi
	movq	%rax, %rdi
	call	_ZStlsISt11char_traitsIcEERSt13basic_ostreamIcT_ES5_c@PLT
	.loc 1 53 13
	leaq	.LC14(%rip), %rsi
	leaq	_ZSt4cout(%rip), %rdi
	call	_ZStlsISt11char_traitsIcEERSt13basic_ostreamIcT_ES5_PKc@PLT
	movq	%rax, %rdx
	.loc 1 53 26
	movl	-44(%rbp), %eax
	movl	%eax, %esi
	movq	%rdx, %rdi
	call	_ZNSolsEi@PLT
	leaq	.LC6(%rip), %rsi
	movq	%rax, %rdi
	call	_ZStlsISt11char_traitsIcEERSt13basic_ostreamIcT_ES5_PKc@PLT
	movq	%rax, %rdx
	.loc 1 53 41
	leaq	-44(%rbp), %rax
	movq	%rax, %rsi
	movq	%rdx, %rdi
	call	_ZNSolsEPKv@PLT
	.loc 1 53 46
	movl	$10, %esi
	movq	%rax, %rdi
	call	_ZStlsISt11char_traitsIcEERSt13basic_ostreamIcT_ES5_c@PLT
	.loc 1 54 13
	leaq	.LC15(%rip), %rsi
	leaq	_ZSt4cout(%rip), %rdi
	call	_ZStlsISt11char_traitsIcEERSt13basic_ostreamIcT_ES5_PKc@PLT
	movq	%rax, %rdx
	.loc 1 54 21
	movq	-40(%rbp), %rax
	movq	%rax, %rsi
	movq	%rdx, %rdi
	call	_ZNSolsEPKv@PLT
	.loc 1 54 26
	leaq	.LC8(%rip), %rsi
	movq	%rax, %rdi
	call	_ZStlsISt11char_traitsIcEERSt13basic_ostreamIcT_ES5_PKc@PLT
	movq	%rax, %rdx
	.loc 1 54 41
	leaq	-40(%rbp), %rax
	movq	%rax, %rsi
	movq	%rdx, %rdi
	call	_ZNSolsEPKv@PLT
	.loc 1 54 46
	leaq	.LC9(%rip), %rsi
	movq	%rax, %rdi
	call	_ZStlsISt11char_traitsIcEERSt13basic_ostreamIcT_ES5_PKc@PLT
	movq	%rax, %rdx
	.loc 1 54 63
	movq	-40(%rbp), %rax
	movl	(%rax), %eax
	movl	%eax, %esi
	movq	%rdx, %rdi
	call	_ZNSolsEi@PLT
	movl	$10, %esi
	movq	%rax, %rdi
	call	_ZStlsISt11char_traitsIcEERSt13basic_ostreamIcT_ES5_c@PLT
	.loc 1 55 13
	leaq	.LC16(%rip), %rsi
	leaq	_ZSt4cout(%rip), %rdi
	call	_ZStlsISt11char_traitsIcEERSt13basic_ostreamIcT_ES5_PKc@PLT
	movq	%rax, %rdx
	.loc 1 55 26
	movq	-16(%rbp), %rax
	movl	(%rax), %eax
	movl	%eax, %esi
	movq	%rdx, %rdi
	call	_ZNSolsEi@PLT
	leaq	.LC11(%rip), %rsi
	movq	%rax, %rdi
	call	_ZStlsISt11char_traitsIcEERSt13basic_ostreamIcT_ES5_PKc@PLT
	movq	%rax, %rdx
	.loc 1 55 41
	movq	-16(%rbp), %rax
	movq	%rax, %rsi
	movq	%rdx, %rdi
	call	_ZNSolsEPKv@PLT
	.loc 1 55 46
	leaq	.LC17(%rip), %rsi
	movq	%rax, %rdi
	call	_ZStlsISt11char_traitsIcEERSt13basic_ostreamIcT_ES5_PKc@PLT
	movq	%rax, %rdx
	.loc 1 55 62
	movq	-16(%rbp), %rax
	movl	(%rax), %eax
	movl	%eax, %esi
	movq	%rdx, %rdi
	call	_ZNSolsEi@PLT
	movl	$10, %esi
	movq	%rax, %rdi
	call	_ZStlsISt11char_traitsIcEERSt13basic_ostreamIcT_ES5_c@PLT
	.loc 1 57 13
	leaq	.LC18(%rip), %rsi
	leaq	_ZSt4cout(%rip), %rdi
	call	_ZStlsISt11char_traitsIcEERSt13basic_ostreamIcT_ES5_PKc@PLT
	.loc 1 61 13
	leaq	.LC19(%rip), %rsi
	leaq	_ZSt4cout(%rip), %rdi
	call	_ZStlsISt11char_traitsIcEERSt13basic_ostreamIcT_ES5_PKc@PLT
	.loc 1 67 13
	leaq	.LC20(%rip), %rsi
	leaq	_ZSt4cout(%rip), %rdi
	call	_ZStlsISt11char_traitsIcEERSt13basic_ostreamIcT_ES5_PKc@PLT
	.loc 1 72 13
	leaq	.LC21(%rip), %rsi
	leaq	_ZSt4cout(%rip), %rdi
	call	_ZStlsISt11char_traitsIcEERSt13basic_ostreamIcT_ES5_PKc@PLT
	.loc 1 73 10
	leaq	16+_ZTV4temo(%rip), %rax
	movq	%rax, -32(%rbp)
	.loc 1 74 18
	leaq	16+_ZTV12temo_derived(%rip), %rax
	movq	%rax, -24(%rbp)
	.loc 1 75 17
	leaq	-24(%rbp), %rax
	movq	%rax, %rdi
	call	_Z12show_generalR4temo
	.loc 1 76 25
	leaq	-24(%rbp), %rax
	movq	%rax, %rdi
	call	_Z20show_general_pointerP4temo
	.loc 1 77 17
	leaq	-32(%rbp), %rax
	movq	%rax, %rdi
	call	_Z12show_generalR4temo
	.loc 1 78 25
	leaq	-32(%rbp), %rax
	movq	%rax, %rdi
	call	_Z20show_general_pointerP4temo
	.loc 1 79 12
	movl	$0, %eax
	.loc 1 80 1
	movq	-8(%rbp), %rcx
	xorq	%fs:40, %rcx
	je	.L11
	call	__stack_chk_fail@PLT
.L11:
	leave
	.cfi_def_cfa 7, 8
	ret
	.cfi_endproc
.LFE1524:
	.size	main, .-main
	.weak	_ZTV12temo_derived
	.section	.data.rel.ro.local._ZTV12temo_derived,"awG",@progbits,_ZTV12temo_derived,comdat
	.align 8
	.type	_ZTV12temo_derived, @object
	.size	_ZTV12temo_derived, 24
_ZTV12temo_derived:
	.quad	0
	.quad	_ZTI12temo_derived
	.quad	_ZN12temo_derived4showEv
	.weak	_ZTV4temo
	.section	.data.rel.ro.local._ZTV4temo,"awG",@progbits,_ZTV4temo,comdat
	.align 8
	.type	_ZTV4temo, @object
	.size	_ZTV4temo, 24
_ZTV4temo:
	.quad	0
	.quad	_ZTI4temo
	.quad	_ZN4temo4showEv
	.weak	_ZTI12temo_derived
	.section	.data.rel.ro._ZTI12temo_derived,"awG",@progbits,_ZTI12temo_derived,comdat
	.align 8
	.type	_ZTI12temo_derived, @object
	.size	_ZTI12temo_derived, 24
_ZTI12temo_derived:
	.quad	_ZTVN10__cxxabiv120__si_class_type_infoE+16
	.quad	_ZTS12temo_derived
	.quad	_ZTI4temo
	.weak	_ZTS12temo_derived
	.section	.rodata._ZTS12temo_derived,"aG",@progbits,_ZTS12temo_derived,comdat
	.align 8
	.type	_ZTS12temo_derived, @object
	.size	_ZTS12temo_derived, 15
_ZTS12temo_derived:
	.string	"12temo_derived"
	.weak	_ZTI4temo
	.section	.data.rel.ro._ZTI4temo,"awG",@progbits,_ZTI4temo,comdat
	.align 8
	.type	_ZTI4temo, @object
	.size	_ZTI4temo, 16
_ZTI4temo:
	.quad	_ZTVN10__cxxabiv117__class_type_infoE+16
	.quad	_ZTS4temo
	.weak	_ZTS4temo
	.section	.rodata._ZTS4temo,"aG",@progbits,_ZTS4temo,comdat
	.type	_ZTS4temo, @object
	.size	_ZTS4temo, 6
_ZTS4temo:
	.string	"4temo"
	.text
	.type	_Z41__static_initialization_and_destruction_0ii, @function
_Z41__static_initialization_and_destruction_0ii:
.LFB2016:
	.loc 1 80 1
	.cfi_startproc
	pushq	%rbp
	.cfi_def_cfa_offset 16
	.cfi_offset 6, -16
	movq	%rsp, %rbp
	.cfi_def_cfa_register 6
	subq	$16, %rsp
	movl	%edi, -4(%rbp)
	movl	%esi, -8(%rbp)
	.loc 1 80 1
	cmpl	$1, -4(%rbp)
	jne	.L14
	.loc 1 80 1 is_stmt 0 discriminator 1
	cmpl	$65535, -8(%rbp)
	jne	.L14
	.file 2 "/usr/include/c++/8/iostream"
	.loc 2 74 25 is_stmt 1
	leaq	_ZStL8__ioinit(%rip), %rdi
	call	_ZNSt8ios_base4InitC1Ev@PLT
	leaq	__dso_handle(%rip), %rdx
	leaq	_ZStL8__ioinit(%rip), %rsi
	movq	_ZNSt8ios_base4InitD1Ev@GOTPCREL(%rip), %rax
	movq	%rax, %rdi
	call	__cxa_atexit@PLT
.L14:
	.loc 1 80 1
	nop
	leave
	.cfi_def_cfa 7, 8
	ret
	.cfi_endproc
.LFE2016:
	.size	_Z41__static_initialization_and_destruction_0ii, .-_Z41__static_initialization_and_destruction_0ii
	.type	_GLOBAL__sub_I__Z4swapRiS_, @function
_GLOBAL__sub_I__Z4swapRiS_:
.LFB2017:
	.loc 1 80 1
	.cfi_startproc
	pushq	%rbp
	.cfi_def_cfa_offset 16
	.cfi_offset 6, -16
	movq	%rsp, %rbp
	.cfi_def_cfa_register 6
	.loc 1 80 1
	movl	$65535, %esi
	movl	$1, %edi
	call	_Z41__static_initialization_and_destruction_0ii
	popq	%rbp
	.cfi_def_cfa 7, 8
	ret
	.cfi_endproc
.LFE2017:
	.size	_GLOBAL__sub_I__Z4swapRiS_, .-_GLOBAL__sub_I__Z4swapRiS_
	.section	.init_array,"aw"
	.align 8
	.quad	_GLOBAL__sub_I__Z4swapRiS_
	.text
.Letext0:
	.file 3 "/usr/include/c++/8/cwchar"
	.file 4 "/usr/include/c++/8/new"
	.file 5 "/usr/include/c++/8/bits/exception_ptr.h"
	.file 6 "/usr/include/c++/8/type_traits"
	.file 7 "/usr/include/x86_64-linux-gnu/c++/8/bits/c++config.h"
	.file 8 "/usr/include/c++/8/bits/cpp_type_traits.h"
	.file 9 "/usr/include/c++/8/bits/stl_pair.h"
	.file 10 "/usr/include/c++/8/debug/debug.h"
	.file 11 "/usr/include/c++/8/bits/char_traits.h"
	.file 12 "/usr/include/c++/8/cstdint"
	.file 13 "/usr/include/c++/8/clocale"
	.file 14 "/usr/include/c++/8/cstdlib"
	.file 15 "/usr/include/c++/8/cstdio"
	.file 16 "/usr/include/c++/8/bits/basic_string.h"
	.file 17 "/usr/include/c++/8/system_error"
	.file 18 "/usr/include/c++/8/bits/ios_base.h"
	.file 19 "/usr/include/c++/8/cwctype"
	.file 20 "/usr/include/c++/8/iosfwd"
	.file 21 "/usr/include/c++/8/bits/predefined_ops.h"
	.file 22 "/usr/include/c++/8/ext/new_allocator.h"
	.file 23 "/usr/include/c++/8/ext/numeric_traits.h"
	.file 24 "/usr/lib/gcc/x86_64-linux-gnu/8/include/stddef.h"
	.file 25 "<built-in>"
	.file 26 "/usr/include/x86_64-linux-gnu/bits/types/wint_t.h"
	.file 27 "/usr/include/x86_64-linux-gnu/bits/types/__mbstate_t.h"
	.file 28 "/usr/include/x86_64-linux-gnu/bits/types/mbstate_t.h"
	.file 29 "/usr/include/x86_64-linux-gnu/bits/types/__FILE.h"
	.file 30 "/usr/include/x86_64-linux-gnu/bits/types/struct_FILE.h"
	.file 31 "/usr/include/x86_64-linux-gnu/bits/types/FILE.h"
	.file 32 "/usr/include/wchar.h"
	.file 33 "/usr/include/x86_64-linux-gnu/bits/types/struct_tm.h"
	.file 34 "/usr/include/x86_64-linux-gnu/bits/types.h"
	.file 35 "/usr/include/x86_64-linux-gnu/bits/stdint-intn.h"
	.file 36 "/usr/include/x86_64-linux-gnu/bits/stdint-uintn.h"
	.file 37 "/usr/include/stdint.h"
	.file 38 "/usr/include/locale.h"
	.file 39 "/usr/include/time.h"
	.file 40 "/usr/include/x86_64-linux-gnu/c++/8/bits/atomic_word.h"
	.file 41 "/usr/include/stdlib.h"
	.file 42 "/usr/include/x86_64-linux-gnu/bits/types/__fpos_t.h"
	.file 43 "/usr/include/stdio.h"
	.file 44 "/usr/include/x86_64-linux-gnu/bits/sys_errlist.h"
	.file 45 "/usr/include/errno.h"
	.file 46 "/usr/include/x86_64-linux-gnu/bits/wctype-wchar.h"
	.file 47 "/usr/include/wctype.h"
	.file 48 "/usr/include/c++/8/bits/stl_iterator_base_types.h"
	.section	.note.GNU-stack,"",@progbits
