	.file	"map.cpp"
	.text
	.section	.text._ZnwmPv,"axG",@progbits,_ZnwmPv,comdat
	.weak	_ZnwmPv
	.type	_ZnwmPv, @function
_ZnwmPv:
.LFB38:
	.cfi_startproc
	pushq	%rbp
	.cfi_def_cfa_offset 16
	.cfi_offset 6, -16
	movq	%rsp, %rbp
	.cfi_def_cfa_register 6
	movq	%rdi, -8(%rbp)
	movq	%rsi, -16(%rbp)
	movq	-16(%rbp), %rax
	popq	%rbp
	.cfi_def_cfa 7, 8
	ret
	.cfi_endproc
.LFE38:
	.size	_ZnwmPv, .-_ZnwmPv
	.section	.text._ZdlPvS_,"axG",@progbits,_ZdlPvS_,comdat
	.weak	_ZdlPvS_
	.type	_ZdlPvS_, @function
_ZdlPvS_:
.LFB40:
	.cfi_startproc
	pushq	%rbp
	.cfi_def_cfa_offset 16
	.cfi_offset 6, -16
	movq	%rsp, %rbp
	.cfi_def_cfa_register 6
	movq	%rdi, -8(%rbp)
	movq	%rsi, -16(%rbp)
	nop
	popq	%rbp
	.cfi_def_cfa 7, 8
	ret
	.cfi_endproc
.LFE40:
	.size	_ZdlPvS_, .-_ZdlPvS_
	.section	.rodata
	.type	_ZStL19piecewise_construct, @object
	.size	_ZStL19piecewise_construct, 1
_ZStL19piecewise_construct:
	.zero	1
	.local	_ZStL8__ioinit
	.comm	_ZStL8__ioinit,1,1
	.section	.text._ZNSt15_Rb_tree_headerC2Ev,"axG",@progbits,_ZNSt15_Rb_tree_headerC5Ev,comdat
	.align 2
	.weak	_ZNSt15_Rb_tree_headerC2Ev
	.type	_ZNSt15_Rb_tree_headerC2Ev, @function
_ZNSt15_Rb_tree_headerC2Ev:
.LFB1536:
	.cfi_startproc
	pushq	%rbp
	.cfi_def_cfa_offset 16
	.cfi_offset 6, -16
	movq	%rsp, %rbp
	.cfi_def_cfa_register 6
	subq	$16, %rsp
	movq	%rdi, -8(%rbp)
	movq	-8(%rbp), %rax
	movl	$0, (%rax)
	movq	-8(%rbp), %rax
	movq	%rax, %rdi
	call	_ZNSt15_Rb_tree_header8_M_resetEv
	nop
	leave
	.cfi_def_cfa 7, 8
	ret
	.cfi_endproc
.LFE1536:
	.size	_ZNSt15_Rb_tree_headerC2Ev, .-_ZNSt15_Rb_tree_headerC2Ev
	.weak	_ZNSt15_Rb_tree_headerC1Ev
	.set	_ZNSt15_Rb_tree_headerC1Ev,_ZNSt15_Rb_tree_headerC2Ev
	.section	.text._ZNSt15_Rb_tree_header8_M_resetEv,"axG",@progbits,_ZNSt15_Rb_tree_header8_M_resetEv,comdat
	.align 2
	.weak	_ZNSt15_Rb_tree_header8_M_resetEv
	.type	_ZNSt15_Rb_tree_header8_M_resetEv, @function
_ZNSt15_Rb_tree_header8_M_resetEv:
.LFB1542:
	.cfi_startproc
	pushq	%rbp
	.cfi_def_cfa_offset 16
	.cfi_offset 6, -16
	movq	%rsp, %rbp
	.cfi_def_cfa_register 6
	movq	%rdi, -8(%rbp)
	movq	-8(%rbp), %rax
	movq	$0, 8(%rax)
	movq	-8(%rbp), %rdx
	movq	-8(%rbp), %rax
	movq	%rdx, 16(%rax)
	movq	-8(%rbp), %rdx
	movq	-8(%rbp), %rax
	movq	%rdx, 24(%rax)
	movq	-8(%rbp), %rax
	movq	$0, 32(%rax)
	nop
	popq	%rbp
	.cfi_def_cfa 7, 8
	ret
	.cfi_endproc
.LFE1542:
	.size	_ZNSt15_Rb_tree_header8_M_resetEv, .-_ZNSt15_Rb_tree_header8_M_resetEv
	.section	.rodata
	.type	_ZStL13allocator_arg, @object
	.size	_ZStL13allocator_arg, 1
_ZStL13allocator_arg:
	.zero	1
	.type	_ZStL6ignore, @object
	.size	_ZStL6ignore, 1
_ZStL6ignore:
	.zero	1
	.section	.text._ZNSt8_Rb_treeIcSt4pairIKciESt10_Select1stIS2_ESt4lessIcESaIS2_EE13_Rb_tree_implIS6_Lb1EED2Ev,"axG",@progbits,_ZNSt8_Rb_treeIcSt4pairIKciESt10_Select1stIS2_ESt4lessIcESaIS2_EE13_Rb_tree_implIS6_Lb1EED5Ev,comdat
	.align 2
	.weak	_ZNSt8_Rb_treeIcSt4pairIKciESt10_Select1stIS2_ESt4lessIcESaIS2_EE13_Rb_tree_implIS6_Lb1EED2Ev
	.type	_ZNSt8_Rb_treeIcSt4pairIKciESt10_Select1stIS2_ESt4lessIcESaIS2_EE13_Rb_tree_implIS6_Lb1EED2Ev, @function
_ZNSt8_Rb_treeIcSt4pairIKciESt10_Select1stIS2_ESt4lessIcESaIS2_EE13_Rb_tree_implIS6_Lb1EED2Ev:
.LFB2111:
	.cfi_startproc
	pushq	%rbp
	.cfi_def_cfa_offset 16
	.cfi_offset 6, -16
	movq	%rsp, %rbp
	.cfi_def_cfa_register 6
	subq	$16, %rsp
	movq	%rdi, -8(%rbp)
	movq	-8(%rbp), %rax
	movq	%rax, %rdi
	call	_ZNSaISt13_Rb_tree_nodeISt4pairIKciEEED2Ev
	nop
	leave
	.cfi_def_cfa 7, 8
	ret
	.cfi_endproc
.LFE2111:
	.size	_ZNSt8_Rb_treeIcSt4pairIKciESt10_Select1stIS2_ESt4lessIcESaIS2_EE13_Rb_tree_implIS6_Lb1EED2Ev, .-_ZNSt8_Rb_treeIcSt4pairIKciESt10_Select1stIS2_ESt4lessIcESaIS2_EE13_Rb_tree_implIS6_Lb1EED2Ev
	.weak	_ZNSt8_Rb_treeIcSt4pairIKciESt10_Select1stIS2_ESt4lessIcESaIS2_EE13_Rb_tree_implIS6_Lb1EED1Ev
	.set	_ZNSt8_Rb_treeIcSt4pairIKciESt10_Select1stIS2_ESt4lessIcESaIS2_EE13_Rb_tree_implIS6_Lb1EED1Ev,_ZNSt8_Rb_treeIcSt4pairIKciESt10_Select1stIS2_ESt4lessIcESaIS2_EE13_Rb_tree_implIS6_Lb1EED2Ev
	.section	.text._ZNSt8_Rb_treeIcSt4pairIKciESt10_Select1stIS2_ESt4lessIcESaIS2_EEC2Ev,"axG",@progbits,_ZNSt8_Rb_treeIcSt4pairIKciESt10_Select1stIS2_ESt4lessIcESaIS2_EEC5Ev,comdat
	.align 2
	.weak	_ZNSt8_Rb_treeIcSt4pairIKciESt10_Select1stIS2_ESt4lessIcESaIS2_EEC2Ev
	.type	_ZNSt8_Rb_treeIcSt4pairIKciESt10_Select1stIS2_ESt4lessIcESaIS2_EEC2Ev, @function
_ZNSt8_Rb_treeIcSt4pairIKciESt10_Select1stIS2_ESt4lessIcESaIS2_EEC2Ev:
.LFB2113:
	.cfi_startproc
	pushq	%rbp
	.cfi_def_cfa_offset 16
	.cfi_offset 6, -16
	movq	%rsp, %rbp
	.cfi_def_cfa_register 6
	subq	$16, %rsp
	movq	%rdi, -8(%rbp)
	movq	-8(%rbp), %rax
	movq	%rax, %rdi
	call	_ZNSt8_Rb_treeIcSt4pairIKciESt10_Select1stIS2_ESt4lessIcESaIS2_EE13_Rb_tree_implIS6_Lb1EEC1Ev
	nop
	leave
	.cfi_def_cfa 7, 8
	ret
	.cfi_endproc
.LFE2113:
	.size	_ZNSt8_Rb_treeIcSt4pairIKciESt10_Select1stIS2_ESt4lessIcESaIS2_EEC2Ev, .-_ZNSt8_Rb_treeIcSt4pairIKciESt10_Select1stIS2_ESt4lessIcESaIS2_EEC2Ev
	.weak	_ZNSt8_Rb_treeIcSt4pairIKciESt10_Select1stIS2_ESt4lessIcESaIS2_EEC1Ev
	.set	_ZNSt8_Rb_treeIcSt4pairIKciESt10_Select1stIS2_ESt4lessIcESaIS2_EEC1Ev,_ZNSt8_Rb_treeIcSt4pairIKciESt10_Select1stIS2_ESt4lessIcESaIS2_EEC2Ev
	.section	.text._ZNSt3mapIciSt4lessIcESaISt4pairIKciEEEC2Ev,"axG",@progbits,_ZNSt3mapIciSt4lessIcESaISt4pairIKciEEEC5Ev,comdat
	.align 2
	.weak	_ZNSt3mapIciSt4lessIcESaISt4pairIKciEEEC2Ev
	.type	_ZNSt3mapIciSt4lessIcESaISt4pairIKciEEEC2Ev, @function
_ZNSt3mapIciSt4lessIcESaISt4pairIKciEEEC2Ev:
.LFB2115:
	.cfi_startproc
	pushq	%rbp
	.cfi_def_cfa_offset 16
	.cfi_offset 6, -16
	movq	%rsp, %rbp
	.cfi_def_cfa_register 6
	subq	$16, %rsp
	movq	%rdi, -8(%rbp)
	movq	-8(%rbp), %rax
	movq	%rax, %rdi
	call	_ZNSt8_Rb_treeIcSt4pairIKciESt10_Select1stIS2_ESt4lessIcESaIS2_EEC1Ev
	nop
	leave
	.cfi_def_cfa 7, 8
	ret
	.cfi_endproc
.LFE2115:
	.size	_ZNSt3mapIciSt4lessIcESaISt4pairIKciEEEC2Ev, .-_ZNSt3mapIciSt4lessIcESaISt4pairIKciEEEC2Ev
	.weak	_ZNSt3mapIciSt4lessIcESaISt4pairIKciEEEC1Ev
	.set	_ZNSt3mapIciSt4lessIcESaISt4pairIKciEEEC1Ev,_ZNSt3mapIciSt4lessIcESaISt4pairIKciEEEC2Ev
	.section	.text._ZNSt3mapIciSt4lessIcESaISt4pairIKciEEED2Ev,"axG",@progbits,_ZNSt3mapIciSt4lessIcESaISt4pairIKciEEED5Ev,comdat
	.align 2
	.weak	_ZNSt3mapIciSt4lessIcESaISt4pairIKciEEED2Ev
	.type	_ZNSt3mapIciSt4lessIcESaISt4pairIKciEEED2Ev, @function
_ZNSt3mapIciSt4lessIcESaISt4pairIKciEEED2Ev:
.LFB2118:
	.cfi_startproc
	pushq	%rbp
	.cfi_def_cfa_offset 16
	.cfi_offset 6, -16
	movq	%rsp, %rbp
	.cfi_def_cfa_register 6
	subq	$16, %rsp
	movq	%rdi, -8(%rbp)
	movq	-8(%rbp), %rax
	movq	%rax, %rdi
	call	_ZNSt8_Rb_treeIcSt4pairIKciESt10_Select1stIS2_ESt4lessIcESaIS2_EED1Ev
	nop
	leave
	.cfi_def_cfa 7, 8
	ret
	.cfi_endproc
.LFE2118:
	.size	_ZNSt3mapIciSt4lessIcESaISt4pairIKciEEED2Ev, .-_ZNSt3mapIciSt4lessIcESaISt4pairIKciEEED2Ev
	.weak	_ZNSt3mapIciSt4lessIcESaISt4pairIKciEEED1Ev
	.set	_ZNSt3mapIciSt4lessIcESaISt4pairIKciEEED1Ev,_ZNSt3mapIciSt4lessIcESaISt4pairIKciEEED2Ev
	.section	.text._ZNSt8_Rb_treeIiSt4pairIKicESt10_Select1stIS2_ESt4lessIiESaIS2_EE13_Rb_tree_implIS6_Lb1EED2Ev,"axG",@progbits,_ZNSt8_Rb_treeIiSt4pairIKicESt10_Select1stIS2_ESt4lessIiESaIS2_EE13_Rb_tree_implIS6_Lb1EED5Ev,comdat
	.align 2
	.weak	_ZNSt8_Rb_treeIiSt4pairIKicESt10_Select1stIS2_ESt4lessIiESaIS2_EE13_Rb_tree_implIS6_Lb1EED2Ev
	.type	_ZNSt8_Rb_treeIiSt4pairIKicESt10_Select1stIS2_ESt4lessIiESaIS2_EE13_Rb_tree_implIS6_Lb1EED2Ev, @function
_ZNSt8_Rb_treeIiSt4pairIKicESt10_Select1stIS2_ESt4lessIiESaIS2_EE13_Rb_tree_implIS6_Lb1EED2Ev:
.LFB2123:
	.cfi_startproc
	pushq	%rbp
	.cfi_def_cfa_offset 16
	.cfi_offset 6, -16
	movq	%rsp, %rbp
	.cfi_def_cfa_register 6
	subq	$16, %rsp
	movq	%rdi, -8(%rbp)
	movq	-8(%rbp), %rax
	movq	%rax, %rdi
	call	_ZNSaISt13_Rb_tree_nodeISt4pairIKicEEED2Ev
	nop
	leave
	.cfi_def_cfa 7, 8
	ret
	.cfi_endproc
.LFE2123:
	.size	_ZNSt8_Rb_treeIiSt4pairIKicESt10_Select1stIS2_ESt4lessIiESaIS2_EE13_Rb_tree_implIS6_Lb1EED2Ev, .-_ZNSt8_Rb_treeIiSt4pairIKicESt10_Select1stIS2_ESt4lessIiESaIS2_EE13_Rb_tree_implIS6_Lb1EED2Ev
	.weak	_ZNSt8_Rb_treeIiSt4pairIKicESt10_Select1stIS2_ESt4lessIiESaIS2_EE13_Rb_tree_implIS6_Lb1EED1Ev
	.set	_ZNSt8_Rb_treeIiSt4pairIKicESt10_Select1stIS2_ESt4lessIiESaIS2_EE13_Rb_tree_implIS6_Lb1EED1Ev,_ZNSt8_Rb_treeIiSt4pairIKicESt10_Select1stIS2_ESt4lessIiESaIS2_EE13_Rb_tree_implIS6_Lb1EED2Ev
	.section	.text._ZNSt8_Rb_treeIiSt4pairIKicESt10_Select1stIS2_ESt4lessIiESaIS2_EEC2Ev,"axG",@progbits,_ZNSt8_Rb_treeIiSt4pairIKicESt10_Select1stIS2_ESt4lessIiESaIS2_EEC5Ev,comdat
	.align 2
	.weak	_ZNSt8_Rb_treeIiSt4pairIKicESt10_Select1stIS2_ESt4lessIiESaIS2_EEC2Ev
	.type	_ZNSt8_Rb_treeIiSt4pairIKicESt10_Select1stIS2_ESt4lessIiESaIS2_EEC2Ev, @function
_ZNSt8_Rb_treeIiSt4pairIKicESt10_Select1stIS2_ESt4lessIiESaIS2_EEC2Ev:
.LFB2125:
	.cfi_startproc
	pushq	%rbp
	.cfi_def_cfa_offset 16
	.cfi_offset 6, -16
	movq	%rsp, %rbp
	.cfi_def_cfa_register 6
	subq	$16, %rsp
	movq	%rdi, -8(%rbp)
	movq	-8(%rbp), %rax
	movq	%rax, %rdi
	call	_ZNSt8_Rb_treeIiSt4pairIKicESt10_Select1stIS2_ESt4lessIiESaIS2_EE13_Rb_tree_implIS6_Lb1EEC1Ev
	nop
	leave
	.cfi_def_cfa 7, 8
	ret
	.cfi_endproc
.LFE2125:
	.size	_ZNSt8_Rb_treeIiSt4pairIKicESt10_Select1stIS2_ESt4lessIiESaIS2_EEC2Ev, .-_ZNSt8_Rb_treeIiSt4pairIKicESt10_Select1stIS2_ESt4lessIiESaIS2_EEC2Ev
	.weak	_ZNSt8_Rb_treeIiSt4pairIKicESt10_Select1stIS2_ESt4lessIiESaIS2_EEC1Ev
	.set	_ZNSt8_Rb_treeIiSt4pairIKicESt10_Select1stIS2_ESt4lessIiESaIS2_EEC1Ev,_ZNSt8_Rb_treeIiSt4pairIKicESt10_Select1stIS2_ESt4lessIiESaIS2_EEC2Ev
	.section	.text._ZNSt3mapIicSt4lessIiESaISt4pairIKicEEEC2Ev,"axG",@progbits,_ZNSt3mapIicSt4lessIiESaISt4pairIKicEEEC5Ev,comdat
	.align 2
	.weak	_ZNSt3mapIicSt4lessIiESaISt4pairIKicEEEC2Ev
	.type	_ZNSt3mapIicSt4lessIiESaISt4pairIKicEEEC2Ev, @function
_ZNSt3mapIicSt4lessIiESaISt4pairIKicEEEC2Ev:
.LFB2127:
	.cfi_startproc
	pushq	%rbp
	.cfi_def_cfa_offset 16
	.cfi_offset 6, -16
	movq	%rsp, %rbp
	.cfi_def_cfa_register 6
	subq	$16, %rsp
	movq	%rdi, -8(%rbp)
	movq	-8(%rbp), %rax
	movq	%rax, %rdi
	call	_ZNSt8_Rb_treeIiSt4pairIKicESt10_Select1stIS2_ESt4lessIiESaIS2_EEC1Ev
	nop
	leave
	.cfi_def_cfa 7, 8
	ret
	.cfi_endproc
.LFE2127:
	.size	_ZNSt3mapIicSt4lessIiESaISt4pairIKicEEEC2Ev, .-_ZNSt3mapIicSt4lessIiESaISt4pairIKicEEEC2Ev
	.weak	_ZNSt3mapIicSt4lessIiESaISt4pairIKicEEEC1Ev
	.set	_ZNSt3mapIicSt4lessIiESaISt4pairIKicEEEC1Ev,_ZNSt3mapIicSt4lessIiESaISt4pairIKicEEEC2Ev
	.section	.text._ZNSt3mapIicSt4lessIiESaISt4pairIKicEEED2Ev,"axG",@progbits,_ZNSt3mapIicSt4lessIiESaISt4pairIKicEEED5Ev,comdat
	.align 2
	.weak	_ZNSt3mapIicSt4lessIiESaISt4pairIKicEEED2Ev
	.type	_ZNSt3mapIicSt4lessIiESaISt4pairIKicEEED2Ev, @function
_ZNSt3mapIicSt4lessIiESaISt4pairIKicEEED2Ev:
.LFB2130:
	.cfi_startproc
	pushq	%rbp
	.cfi_def_cfa_offset 16
	.cfi_offset 6, -16
	movq	%rsp, %rbp
	.cfi_def_cfa_register 6
	subq	$16, %rsp
	movq	%rdi, -8(%rbp)
	movq	-8(%rbp), %rax
	movq	%rax, %rdi
	call	_ZNSt8_Rb_treeIiSt4pairIKicESt10_Select1stIS2_ESt4lessIiESaIS2_EED1Ev
	nop
	leave
	.cfi_def_cfa 7, 8
	ret
	.cfi_endproc
.LFE2130:
	.size	_ZNSt3mapIicSt4lessIiESaISt4pairIKicEEED2Ev, .-_ZNSt3mapIicSt4lessIiESaISt4pairIKicEEED2Ev
	.weak	_ZNSt3mapIicSt4lessIiESaISt4pairIKicEEED1Ev
	.set	_ZNSt3mapIicSt4lessIiESaISt4pairIKicEEED1Ev,_ZNSt3mapIicSt4lessIiESaISt4pairIKicEEED2Ev
	.section	.text._ZNSt4pairIicEC1IicLb1EEEOT_OT0_,"axG",@progbits,_ZNSt4pairIicEC1IicLb1EEEOT_OT0_,comdat
	.align 2
	.weak	_ZNSt4pairIicEC1IicLb1EEEOT_OT0_
	.type	_ZNSt4pairIicEC1IicLb1EEEOT_OT0_, @function
_ZNSt4pairIicEC1IicLb1EEEOT_OT0_:
.LFB2146:
	.cfi_startproc
	pushq	%rbp
	.cfi_def_cfa_offset 16
	.cfi_offset 6, -16
	movq	%rsp, %rbp
	.cfi_def_cfa_register 6
	subq	$32, %rsp
	movq	%rdi, -8(%rbp)
	movq	%rsi, -16(%rbp)
	movq	%rdx, -24(%rbp)
	movq	-16(%rbp), %rax
	movq	%rax, %rdi
	call	_ZSt7forwardIiEOT_RNSt16remove_referenceIS0_E4typeE
	movl	(%rax), %edx
	movq	-8(%rbp), %rax
	movl	%edx, (%rax)
	movq	-24(%rbp), %rax
	movq	%rax, %rdi
	call	_ZSt7forwardIcEOT_RNSt16remove_referenceIS0_E4typeE
	movzbl	(%rax), %edx
	movq	-8(%rbp), %rax
	movb	%dl, 4(%rax)
	nop
	leave
	.cfi_def_cfa 7, 8
	ret
	.cfi_endproc
.LFE2146:
	.size	_ZNSt4pairIicEC1IicLb1EEEOT_OT0_, .-_ZNSt4pairIicEC1IicLb1EEEOT_OT0_
	.section	.text._ZSt7forwardIiEOT_RNSt16remove_referenceIS0_E4typeE,"axG",@progbits,_ZSt7forwardIiEOT_RNSt16remove_referenceIS0_E4typeE,comdat
	.weak	_ZSt7forwardIiEOT_RNSt16remove_referenceIS0_E4typeE
	.type	_ZSt7forwardIiEOT_RNSt16remove_referenceIS0_E4typeE, @function
_ZSt7forwardIiEOT_RNSt16remove_referenceIS0_E4typeE:
.LFB2147:
	.cfi_startproc
	pushq	%rbp
	.cfi_def_cfa_offset 16
	.cfi_offset 6, -16
	movq	%rsp, %rbp
	.cfi_def_cfa_register 6
	movq	%rdi, -8(%rbp)
	movq	-8(%rbp), %rax
	popq	%rbp
	.cfi_def_cfa 7, 8
	ret
	.cfi_endproc
.LFE2147:
	.size	_ZSt7forwardIiEOT_RNSt16remove_referenceIS0_E4typeE, .-_ZSt7forwardIiEOT_RNSt16remove_referenceIS0_E4typeE
	.section	.text._ZSt7forwardIcEOT_RNSt16remove_referenceIS0_E4typeE,"axG",@progbits,_ZSt7forwardIcEOT_RNSt16remove_referenceIS0_E4typeE,comdat
	.weak	_ZSt7forwardIcEOT_RNSt16remove_referenceIS0_E4typeE
	.type	_ZSt7forwardIcEOT_RNSt16remove_referenceIS0_E4typeE, @function
_ZSt7forwardIcEOT_RNSt16remove_referenceIS0_E4typeE:
.LFB2148:
	.cfi_startproc
	pushq	%rbp
	.cfi_def_cfa_offset 16
	.cfi_offset 6, -16
	movq	%rsp, %rbp
	.cfi_def_cfa_register 6
	movq	%rdi, -8(%rbp)
	movq	-8(%rbp), %rax
	popq	%rbp
	.cfi_def_cfa 7, 8
	ret
	.cfi_endproc
.LFE2148:
	.size	_ZSt7forwardIcEOT_RNSt16remove_referenceIS0_E4typeE, .-_ZSt7forwardIcEOT_RNSt16remove_referenceIS0_E4typeE
	.section	.rodata
.LC0:
	.string	" => "
.LC1:
	.string	"end \n"
.LC2:
	.string	"not end \n"
.LC3:
	.string	"find"
	.text
	.globl	main
	.type	main, @function
main:
.LFB2106:
	.cfi_startproc
	.cfi_personality 0x9b,DW.ref.__gxx_personality_v0
	.cfi_lsda 0x1b,.LLSDA2106
	pushq	%rbp
	.cfi_def_cfa_offset 16
	.cfi_offset 6, -16
	movq	%rsp, %rbp
	.cfi_def_cfa_register 6
	pushq	%rbx
	subq	$152, %rsp
	.cfi_offset 3, -24
	movq	%fs:40, %rax
	movq	%rax, -24(%rbp)
	xorl	%eax, %eax
	leaq	-128(%rbp), %rax
	movq	%rax, %rdi
	call	_ZNSt3mapIciSt4lessIcESaISt4pairIKciEEEC1Ev
	leaq	-152(%rbp), %rax
	movq	%rax, %rdi
	call	_ZNSt17_Rb_tree_iteratorISt4pairIKciEEC1Ev
	movb	$97, -80(%rbp)
	leaq	-80(%rbp), %rdx
	leaq	-128(%rbp), %rax
	movq	%rdx, %rsi
	movq	%rax, %rdi
.LEHB0:
	call	_ZNSt3mapIciSt4lessIcESaISt4pairIKciEEEixEOc
	movl	$10, (%rax)
	movb	$98, -80(%rbp)
	leaq	-80(%rbp), %rdx
	leaq	-128(%rbp), %rax
	movq	%rdx, %rsi
	movq	%rax, %rdi
	call	_ZNSt3mapIciSt4lessIcESaISt4pairIKciEEEixEOc
	movl	$20, (%rax)
	movb	$99, -80(%rbp)
	leaq	-80(%rbp), %rdx
	leaq	-128(%rbp), %rax
	movq	%rdx, %rsi
	movq	%rax, %rdi
	call	_ZNSt3mapIciSt4lessIcESaISt4pairIKciEEEixEOc
	movl	$30, (%rax)
	movb	$100, -80(%rbp)
	leaq	-80(%rbp), %rdx
	leaq	-128(%rbp), %rax
	movq	%rdx, %rsi
	movq	%rax, %rdi
	call	_ZNSt3mapIciSt4lessIcESaISt4pairIKciEEEixEOc
	movl	$40, (%rax)
	movb	$101, -80(%rbp)
	leaq	-80(%rbp), %rdx
	leaq	-128(%rbp), %rax
	movq	%rdx, %rsi
	movq	%rax, %rdi
	call	_ZNSt3mapIciSt4lessIcESaISt4pairIKciEEEixEOc
	movl	$50, (%rax)
	movb	$102, -80(%rbp)
	leaq	-80(%rbp), %rdx
	leaq	-128(%rbp), %rax
	movq	%rdx, %rsi
	movq	%rax, %rdi
	call	_ZNSt3mapIciSt4lessIcESaISt4pairIKciEEEixEOc
	movl	$60, (%rax)
	movb	$98, -80(%rbp)
	leaq	-80(%rbp), %rdx
	leaq	-128(%rbp), %rax
	movq	%rdx, %rsi
	movq	%rax, %rdi
	call	_ZNSt3mapIciSt4lessIcESaISt4pairIKciEEE4findERS3_
	movq	%rax, -152(%rbp)
	movq	-152(%rbp), %rdx
	leaq	-128(%rbp), %rax
	movq	%rdx, %rsi
	movq	%rax, %rdi
	call	_ZNSt3mapIciSt4lessIcESaISt4pairIKciEEE5eraseB5cxx11ESt17_Rb_tree_iteratorIS4_E
	movb	$99, -80(%rbp)
	leaq	-80(%rbp), %rdx
	leaq	-128(%rbp), %rax
	movq	%rdx, %rsi
	movq	%rax, %rdi
	call	_ZNSt3mapIciSt4lessIcESaISt4pairIKciEEE5eraseERS3_
	movb	$101, -80(%rbp)
	leaq	-80(%rbp), %rdx
	leaq	-128(%rbp), %rax
	movq	%rdx, %rsi
	movq	%rax, %rdi
	call	_ZNSt3mapIciSt4lessIcESaISt4pairIKciEEE4findERS3_
	movq	%rax, -152(%rbp)
	leaq	-128(%rbp), %rax
	movq	%rax, %rdi
	call	_ZNSt3mapIciSt4lessIcESaISt4pairIKciEEE3endEv
	movq	%rax, -144(%rbp)
	leaq	-144(%rbp), %rdx
	leaq	-80(%rbp), %rax
	movq	%rdx, %rsi
	movq	%rax, %rdi
	call	_ZNSt23_Rb_tree_const_iteratorISt4pairIKciEEC1ERKSt17_Rb_tree_iteratorIS2_E
	leaq	-152(%rbp), %rdx
	leaq	-136(%rbp), %rax
	movq	%rdx, %rsi
	movq	%rax, %rdi
	call	_ZNSt23_Rb_tree_const_iteratorISt4pairIKciEEC1ERKSt17_Rb_tree_iteratorIS2_E
	movq	-80(%rbp), %rdx
	movq	-136(%rbp), %rcx
	leaq	-128(%rbp), %rax
	movq	%rcx, %rsi
	movq	%rax, %rdi
	call	_ZNSt3mapIciSt4lessIcESaISt4pairIKciEEE5eraseESt23_Rb_tree_const_iteratorIS4_ES8_
	leaq	-128(%rbp), %rax
	movq	%rax, %rdi
	call	_ZNSt3mapIciSt4lessIcESaISt4pairIKciEEE5beginEv
	movq	%rax, -152(%rbp)
.L21:
	leaq	-128(%rbp), %rax
	movq	%rax, %rdi
	call	_ZNSt3mapIciSt4lessIcESaISt4pairIKciEEE3endEv
	movq	%rax, -80(%rbp)
	leaq	-80(%rbp), %rdx
	leaq	-152(%rbp), %rax
	movq	%rdx, %rsi
	movq	%rax, %rdi
	call	_ZNKSt17_Rb_tree_iteratorISt4pairIKciEEneERKS3_
	testb	%al, %al
	je	.L20
	leaq	-152(%rbp), %rax
	movq	%rax, %rdi
	call	_ZNKSt17_Rb_tree_iteratorISt4pairIKciEEptEv
	movzbl	(%rax), %eax
	movsbl	%al, %eax
	movl	%eax, %esi
	leaq	_ZSt4cout(%rip), %rdi
	call	_ZStlsISt11char_traitsIcEERSt13basic_ostreamIcT_ES5_c@PLT
	leaq	.LC0(%rip), %rsi
	movq	%rax, %rdi
	call	_ZStlsISt11char_traitsIcEERSt13basic_ostreamIcT_ES5_PKc@PLT
	movq	%rax, %rbx
	leaq	-152(%rbp), %rax
	movq	%rax, %rdi
	call	_ZNKSt17_Rb_tree_iteratorISt4pairIKciEEptEv
	movl	4(%rax), %eax
	movl	%eax, %esi
	movq	%rbx, %rdi
	call	_ZNSolsEi@PLT
	movl	$10, %esi
	movq	%rax, %rdi
	call	_ZStlsISt11char_traitsIcEERSt13basic_ostreamIcT_ES5_c@PLT
	leaq	-152(%rbp), %rax
	movq	%rax, %rdi
	call	_ZNSt17_Rb_tree_iteratorISt4pairIKciEEppEv
	jmp	.L21
.L20:
	movb	$101, -80(%rbp)
	leaq	-80(%rbp), %rdx
	leaq	-128(%rbp), %rax
	movq	%rdx, %rsi
	movq	%rax, %rdi
	call	_ZNSt3mapIciSt4lessIcESaISt4pairIKciEEE4findERS3_
	movq	%rax, -152(%rbp)
	leaq	-152(%rbp), %rax
	movq	%rax, %rdi
	call	_ZNKSt17_Rb_tree_iteratorISt4pairIKciEEptEv
	movzbl	(%rax), %eax
	movsbl	%al, %eax
	movl	%eax, %esi
	leaq	_ZSt4cout(%rip), %rdi
	call	_ZStlsISt11char_traitsIcEERSt13basic_ostreamIcT_ES5_c@PLT
	leaq	.LC0(%rip), %rsi
	movq	%rax, %rdi
	call	_ZStlsISt11char_traitsIcEERSt13basic_ostreamIcT_ES5_PKc@PLT
	movq	%rax, %rbx
	leaq	-152(%rbp), %rax
	movq	%rax, %rdi
	call	_ZNKSt17_Rb_tree_iteratorISt4pairIKciEEptEv
	movl	4(%rax), %eax
	movl	%eax, %esi
	movq	%rbx, %rdi
	call	_ZNSolsEi@PLT
	movl	$10, %esi
	movq	%rax, %rdi
	call	_ZStlsISt11char_traitsIcEERSt13basic_ostreamIcT_ES5_c@PLT
	movq	_ZSt4endlIcSt11char_traitsIcEERSt13basic_ostreamIT_T0_ES6_@GOTPCREL(%rip), %rax
	movq	%rax, %rsi
	leaq	_ZSt4cout(%rip), %rdi
	call	_ZNSolsEPFRSoS_E@PLT
	movq	%rax, %rdx
	movq	_ZSt4endlIcSt11char_traitsIcEERSt13basic_ostreamIT_T0_ES6_@GOTPCREL(%rip), %rax
	movq	%rax, %rsi
	movq	%rdx, %rdi
	call	_ZNSolsEPFRSoS_E@PLT
.LEHE0:
	leaq	-80(%rbp), %rax
	movq	%rax, %rdi
	call	_ZNSt3mapIicSt4lessIiESaISt4pairIKicEEEC1Ev
	leaq	-144(%rbp), %rax
	movq	%rax, %rdi
	call	_ZNSt17_Rb_tree_iteratorISt4pairIKicEEC1Ev
	movb	$97, -157(%rbp)
	movl	$3, -156(%rbp)
	leaq	-157(%rbp), %rdx
	leaq	-156(%rbp), %rcx
	leaq	-136(%rbp), %rax
	movq	%rcx, %rsi
	movq	%rax, %rdi
	call	_ZNSt4pairIicEC1IicLb1EEEOT_OT0_
	leaq	-136(%rbp), %rdx
	leaq	-80(%rbp), %rax
	movq	%rdx, %rsi
	movq	%rax, %rdi
.LEHB1:
	call	_ZNSt3mapIicSt4lessIiESaISt4pairIKicEEE6insertIS2_IicEEENSt9enable_ifIXsrSt16is_constructibleIS4_JT_EE5valueES2_ISt17_Rb_tree_iteratorIS4_EbEE4typeEOSB_
	movb	$98, -157(%rbp)
	movl	$4, -156(%rbp)
	leaq	-157(%rbp), %rdx
	leaq	-156(%rbp), %rcx
	leaq	-136(%rbp), %rax
	movq	%rcx, %rsi
	movq	%rax, %rdi
	call	_ZNSt4pairIicEC1IicLb1EEEOT_OT0_
	leaq	-136(%rbp), %rdx
	leaq	-80(%rbp), %rax
	movq	%rdx, %rsi
	movq	%rax, %rdi
	call	_ZNSt3mapIicSt4lessIiESaISt4pairIKicEEE6insertIS2_IicEEENSt9enable_ifIXsrSt16is_constructibleIS4_JT_EE5valueES2_ISt17_Rb_tree_iteratorIS4_EbEE4typeEOSB_
	movb	$99, -157(%rbp)
	movl	$12, -156(%rbp)
	leaq	-157(%rbp), %rdx
	leaq	-156(%rbp), %rcx
	leaq	-136(%rbp), %rax
	movq	%rcx, %rsi
	movq	%rax, %rdi
	call	_ZNSt4pairIicEC1IicLb1EEEOT_OT0_
	leaq	-136(%rbp), %rdx
	leaq	-80(%rbp), %rax
	movq	%rdx, %rsi
	movq	%rax, %rdi
	call	_ZNSt3mapIicSt4lessIiESaISt4pairIKicEEE6insertIS2_IicEEENSt9enable_ifIXsrSt16is_constructibleIS4_JT_EE5valueES2_ISt17_Rb_tree_iteratorIS4_EbEE4typeEOSB_
	leaq	-80(%rbp), %rax
	movq	%rax, %rdi
	call	_ZNSt3mapIicSt4lessIiESaISt4pairIKicEEE5beginEv
	movq	%rax, -144(%rbp)
.L23:
	leaq	-80(%rbp), %rax
	movq	%rax, %rdi
	call	_ZNSt3mapIicSt4lessIiESaISt4pairIKicEEE3endEv
	movq	%rax, -136(%rbp)
	leaq	-136(%rbp), %rdx
	leaq	-144(%rbp), %rax
	movq	%rdx, %rsi
	movq	%rax, %rdi
	call	_ZNKSt17_Rb_tree_iteratorISt4pairIKicEEneERKS3_
	testb	%al, %al
	je	.L22
	leaq	-144(%rbp), %rax
	movq	%rax, %rdi
	call	_ZNKSt17_Rb_tree_iteratorISt4pairIKicEEptEv
	movl	(%rax), %eax
	movl	%eax, %esi
	leaq	_ZSt4cout(%rip), %rdi
	call	_ZNSolsEi@PLT
	leaq	.LC0(%rip), %rsi
	movq	%rax, %rdi
	call	_ZStlsISt11char_traitsIcEERSt13basic_ostreamIcT_ES5_PKc@PLT
	movq	%rax, %rbx
	leaq	-144(%rbp), %rax
	movq	%rax, %rdi
	call	_ZNKSt17_Rb_tree_iteratorISt4pairIKicEEptEv
	movzbl	4(%rax), %eax
	movsbl	%al, %eax
	movl	%eax, %esi
	movq	%rbx, %rdi
	call	_ZStlsISt11char_traitsIcEERSt13basic_ostreamIcT_ES5_c@PLT
	movl	$10, %esi
	movq	%rax, %rdi
	call	_ZStlsISt11char_traitsIcEERSt13basic_ostreamIcT_ES5_c@PLT
	leaq	-144(%rbp), %rax
	movq	%rax, %rdi
	call	_ZNSt17_Rb_tree_iteratorISt4pairIKicEEppEv
	jmp	.L23
.L22:
	movl	$4, -136(%rbp)
	leaq	-136(%rbp), %rdx
	leaq	-80(%rbp), %rax
	movq	%rdx, %rsi
	movq	%rax, %rdi
	call	_ZNSt3mapIicSt4lessIiESaISt4pairIKicEEE4findERS3_
	movq	%rax, -144(%rbp)
	leaq	-80(%rbp), %rax
	movq	%rax, %rdi
	call	_ZNSt3mapIicSt4lessIiESaISt4pairIKicEEE3endEv
	movq	%rax, -136(%rbp)
	leaq	-136(%rbp), %rdx
	leaq	-144(%rbp), %rax
	movq	%rdx, %rsi
	movq	%rax, %rdi
	call	_ZNKSt17_Rb_tree_iteratorISt4pairIKicEEeqERKS3_
	testb	%al, %al
	je	.L24
	leaq	.LC1(%rip), %rsi
	leaq	_ZSt4cout(%rip), %rdi
	call	_ZStlsISt11char_traitsIcEERSt13basic_ostreamIcT_ES5_PKc@PLT
	jmp	.L25
.L24:
	leaq	.LC2(%rip), %rsi
	leaq	_ZSt4cout(%rip), %rdi
	call	_ZStlsISt11char_traitsIcEERSt13basic_ostreamIcT_ES5_PKc@PLT
.L25:
	movl	$4, -136(%rbp)
	leaq	-136(%rbp), %rdx
	leaq	-80(%rbp), %rax
	movq	%rdx, %rsi
	movq	%rax, %rdi
	call	_ZNSt3mapIicSt4lessIiESaISt4pairIKicEEE5eraseERS3_
	leaq	-80(%rbp), %rax
	movq	%rax, %rdi
	call	_ZNSt3mapIicSt4lessIiESaISt4pairIKicEEE5beginEv
	movq	%rax, -144(%rbp)
.L27:
	leaq	-80(%rbp), %rax
	movq	%rax, %rdi
	call	_ZNSt3mapIicSt4lessIiESaISt4pairIKicEEE3endEv
	movq	%rax, -136(%rbp)
	leaq	-136(%rbp), %rdx
	leaq	-144(%rbp), %rax
	movq	%rdx, %rsi
	movq	%rax, %rdi
	call	_ZNKSt17_Rb_tree_iteratorISt4pairIKicEEneERKS3_
	testb	%al, %al
	je	.L26
	leaq	-144(%rbp), %rax
	movq	%rax, %rdi
	call	_ZNKSt17_Rb_tree_iteratorISt4pairIKicEEptEv
	movl	(%rax), %eax
	movl	%eax, %esi
	leaq	_ZSt4cout(%rip), %rdi
	call	_ZNSolsEi@PLT
	leaq	.LC0(%rip), %rsi
	movq	%rax, %rdi
	call	_ZStlsISt11char_traitsIcEERSt13basic_ostreamIcT_ES5_PKc@PLT
	movq	%rax, %rbx
	leaq	-144(%rbp), %rax
	movq	%rax, %rdi
	call	_ZNKSt17_Rb_tree_iteratorISt4pairIKicEEptEv
	movzbl	4(%rax), %eax
	movsbl	%al, %eax
	movl	%eax, %esi
	movq	%rbx, %rdi
	call	_ZStlsISt11char_traitsIcEERSt13basic_ostreamIcT_ES5_c@PLT
	movl	$10, %esi
	movq	%rax, %rdi
	call	_ZStlsISt11char_traitsIcEERSt13basic_ostreamIcT_ES5_c@PLT
	leaq	-144(%rbp), %rax
	movq	%rax, %rdi
	call	_ZNSt17_Rb_tree_iteratorISt4pairIKicEEppEv
	jmp	.L27
.L26:
	movl	$4, -136(%rbp)
	leaq	-136(%rbp), %rdx
	leaq	-80(%rbp), %rax
	movq	%rdx, %rsi
	movq	%rax, %rdi
	call	_ZNSt3mapIicSt4lessIiESaISt4pairIKicEEE4findERS3_
	movq	%rax, -144(%rbp)
	leaq	-80(%rbp), %rax
	movq	%rax, %rdi
	call	_ZNSt3mapIicSt4lessIiESaISt4pairIKicEEE3endEv
	movq	%rax, -136(%rbp)
	leaq	-136(%rbp), %rdx
	leaq	-144(%rbp), %rax
	movq	%rdx, %rsi
	movq	%rax, %rdi
	call	_ZNKSt17_Rb_tree_iteratorISt4pairIKicEEeqERKS3_
	testb	%al, %al
	je	.L28
	leaq	.LC1(%rip), %rsi
	leaq	_ZSt4cout(%rip), %rdi
	call	_ZStlsISt11char_traitsIcEERSt13basic_ostreamIcT_ES5_PKc@PLT
	jmp	.L29
.L28:
	leaq	.LC2(%rip), %rsi
	leaq	_ZSt4cout(%rip), %rdi
	call	_ZStlsISt11char_traitsIcEERSt13basic_ostreamIcT_ES5_PKc@PLT
.L29:
	leaq	.LC3(%rip), %rsi
	leaq	_ZSt4cout(%rip), %rdi
	call	_ZStlsISt11char_traitsIcEERSt13basic_ostreamIcT_ES5_PKc@PLT
	movq	%rax, %rbx
	leaq	-144(%rbp), %rax
	movq	%rax, %rdi
	call	_ZNKSt17_Rb_tree_iteratorISt4pairIKicEEptEv
	movl	(%rax), %eax
	movl	%eax, %esi
	movq	%rbx, %rdi
	call	_ZNSolsEi@PLT
	leaq	.LC0(%rip), %rsi
	movq	%rax, %rdi
	call	_ZStlsISt11char_traitsIcEERSt13basic_ostreamIcT_ES5_PKc@PLT
	movq	%rax, %rbx
	leaq	-144(%rbp), %rax
	movq	%rax, %rdi
	call	_ZNKSt17_Rb_tree_iteratorISt4pairIKicEEptEv
	movzbl	4(%rax), %eax
	movsbl	%al, %eax
	movl	%eax, %esi
	movq	%rbx, %rdi
	call	_ZStlsISt11char_traitsIcEERSt13basic_ostreamIcT_ES5_c@PLT
	movl	$10, %esi
	movq	%rax, %rdi
	call	_ZStlsISt11char_traitsIcEERSt13basic_ostreamIcT_ES5_c@PLT
.LEHE1:
	movl	$0, %ebx
	leaq	-80(%rbp), %rax
	movq	%rax, %rdi
	call	_ZNSt3mapIicSt4lessIiESaISt4pairIKicEEED1Ev
	leaq	-128(%rbp), %rax
	movq	%rax, %rdi
	call	_ZNSt3mapIciSt4lessIcESaISt4pairIKciEEED1Ev
	movl	%ebx, %eax
	movq	-24(%rbp), %rcx
	xorq	%fs:40, %rcx
	je	.L33
	jmp	.L36
.L35:
	movq	%rax, %rbx
	leaq	-80(%rbp), %rax
	movq	%rax, %rdi
	call	_ZNSt3mapIicSt4lessIiESaISt4pairIKicEEED1Ev
	jmp	.L32
.L34:
	movq	%rax, %rbx
.L32:
	leaq	-128(%rbp), %rax
	movq	%rax, %rdi
	call	_ZNSt3mapIciSt4lessIcESaISt4pairIKciEEED1Ev
	movq	%rbx, %rax
	movq	%rax, %rdi
.LEHB2:
	call	_Unwind_Resume@PLT
.LEHE2:
.L36:
	call	__stack_chk_fail@PLT
.L33:
	addq	$152, %rsp
	popq	%rbx
	popq	%rbp
	.cfi_def_cfa 7, 8
	ret
	.cfi_endproc
.LFE2106:
	.globl	__gxx_personality_v0
	.section	.gcc_except_table,"a",@progbits
.LLSDA2106:
	.byte	0xff
	.byte	0xff
	.byte	0x1
	.uleb128 .LLSDACSE2106-.LLSDACSB2106
.LLSDACSB2106:
	.uleb128 .LEHB0-.LFB2106
	.uleb128 .LEHE0-.LEHB0
	.uleb128 .L34-.LFB2106
	.uleb128 0
	.uleb128 .LEHB1-.LFB2106
	.uleb128 .LEHE1-.LEHB1
	.uleb128 .L35-.LFB2106
	.uleb128 0
	.uleb128 .LEHB2-.LFB2106
	.uleb128 .LEHE2-.LEHB2
	.uleb128 0
	.uleb128 0
.LLSDACSE2106:
	.text
	.size	main, .-main
	.section	.text._ZNSt8_Rb_treeIcSt4pairIKciESt10_Select1stIS2_ESt4lessIcESaIS2_EE13_Rb_tree_implIS6_Lb1EEC2Ev,"axG",@progbits,_ZNSt8_Rb_treeIcSt4pairIKciESt10_Select1stIS2_ESt4lessIcESaIS2_EE13_Rb_tree_implIS6_Lb1EEC5Ev,comdat
	.align 2
	.weak	_ZNSt8_Rb_treeIcSt4pairIKciESt10_Select1stIS2_ESt4lessIcESaIS2_EE13_Rb_tree_implIS6_Lb1EEC2Ev
	.type	_ZNSt8_Rb_treeIcSt4pairIKciESt10_Select1stIS2_ESt4lessIcESaIS2_EE13_Rb_tree_implIS6_Lb1EEC2Ev, @function
_ZNSt8_Rb_treeIcSt4pairIKciESt10_Select1stIS2_ESt4lessIcESaIS2_EE13_Rb_tree_implIS6_Lb1EEC2Ev:
.LFB2386:
	.cfi_startproc
	pushq	%rbp
	.cfi_def_cfa_offset 16
	.cfi_offset 6, -16
	movq	%rsp, %rbp
	.cfi_def_cfa_register 6
	subq	$16, %rsp
	movq	%rdi, -8(%rbp)
	movq	-8(%rbp), %rax
	movq	%rax, %rdi
	call	_ZNSaISt13_Rb_tree_nodeISt4pairIKciEEEC2Ev
	movq	-8(%rbp), %rax
	movq	%rax, %rdi
	call	_ZNSt20_Rb_tree_key_compareISt4lessIcEEC2Ev
	movq	-8(%rbp), %rax
	addq	$8, %rax
	movq	%rax, %rdi
	call	_ZNSt15_Rb_tree_headerC2Ev
	nop
	leave
	.cfi_def_cfa 7, 8
	ret
	.cfi_endproc
.LFE2386:
	.size	_ZNSt8_Rb_treeIcSt4pairIKciESt10_Select1stIS2_ESt4lessIcESaIS2_EE13_Rb_tree_implIS6_Lb1EEC2Ev, .-_ZNSt8_Rb_treeIcSt4pairIKciESt10_Select1stIS2_ESt4lessIcESaIS2_EE13_Rb_tree_implIS6_Lb1EEC2Ev
	.weak	_ZNSt8_Rb_treeIcSt4pairIKciESt10_Select1stIS2_ESt4lessIcESaIS2_EE13_Rb_tree_implIS6_Lb1EEC1Ev
	.set	_ZNSt8_Rb_treeIcSt4pairIKciESt10_Select1stIS2_ESt4lessIcESaIS2_EE13_Rb_tree_implIS6_Lb1EEC1Ev,_ZNSt8_Rb_treeIcSt4pairIKciESt10_Select1stIS2_ESt4lessIcESaIS2_EE13_Rb_tree_implIS6_Lb1EEC2Ev
	.section	.text._ZNSaISt13_Rb_tree_nodeISt4pairIKciEEED2Ev,"axG",@progbits,_ZNSaISt13_Rb_tree_nodeISt4pairIKciEEED5Ev,comdat
	.align 2
	.weak	_ZNSaISt13_Rb_tree_nodeISt4pairIKciEEED2Ev
	.type	_ZNSaISt13_Rb_tree_nodeISt4pairIKciEEED2Ev, @function
_ZNSaISt13_Rb_tree_nodeISt4pairIKciEEED2Ev:
.LFB2389:
	.cfi_startproc
	pushq	%rbp
	.cfi_def_cfa_offset 16
	.cfi_offset 6, -16
	movq	%rsp, %rbp
	.cfi_def_cfa_register 6
	subq	$16, %rsp
	movq	%rdi, -8(%rbp)
	movq	-8(%rbp), %rax
	movq	%rax, %rdi
	call	_ZN9__gnu_cxx13new_allocatorISt13_Rb_tree_nodeISt4pairIKciEEED2Ev
	nop
	leave
	.cfi_def_cfa 7, 8
	ret
	.cfi_endproc
.LFE2389:
	.size	_ZNSaISt13_Rb_tree_nodeISt4pairIKciEEED2Ev, .-_ZNSaISt13_Rb_tree_nodeISt4pairIKciEEED2Ev
	.weak	_ZNSaISt13_Rb_tree_nodeISt4pairIKciEEED1Ev
	.set	_ZNSaISt13_Rb_tree_nodeISt4pairIKciEEED1Ev,_ZNSaISt13_Rb_tree_nodeISt4pairIKciEEED2Ev
	.section	.text._ZNSt8_Rb_treeIcSt4pairIKciESt10_Select1stIS2_ESt4lessIcESaIS2_EED2Ev,"axG",@progbits,_ZNSt8_Rb_treeIcSt4pairIKciESt10_Select1stIS2_ESt4lessIcESaIS2_EED5Ev,comdat
	.align 2
	.weak	_ZNSt8_Rb_treeIcSt4pairIKciESt10_Select1stIS2_ESt4lessIcESaIS2_EED2Ev
	.type	_ZNSt8_Rb_treeIcSt4pairIKciESt10_Select1stIS2_ESt4lessIcESaIS2_EED2Ev, @function
_ZNSt8_Rb_treeIcSt4pairIKciESt10_Select1stIS2_ESt4lessIcESaIS2_EED2Ev:
.LFB2392:
	.cfi_startproc
	.cfi_personality 0x9b,DW.ref.__gxx_personality_v0
	.cfi_lsda 0x1b,.LLSDA2392
	pushq	%rbp
	.cfi_def_cfa_offset 16
	.cfi_offset 6, -16
	movq	%rsp, %rbp
	.cfi_def_cfa_register 6
	subq	$16, %rsp
	movq	%rdi, -8(%rbp)
	movq	-8(%rbp), %rax
	movq	%rax, %rdi
	call	_ZNSt8_Rb_treeIcSt4pairIKciESt10_Select1stIS2_ESt4lessIcESaIS2_EE8_M_beginEv
	movq	%rax, %rdx
	movq	-8(%rbp), %rax
	movq	%rdx, %rsi
	movq	%rax, %rdi
	call	_ZNSt8_Rb_treeIcSt4pairIKciESt10_Select1stIS2_ESt4lessIcESaIS2_EE8_M_eraseEPSt13_Rb_tree_nodeIS2_E
	movq	-8(%rbp), %rax
	movq	%rax, %rdi
	call	_ZNSt8_Rb_treeIcSt4pairIKciESt10_Select1stIS2_ESt4lessIcESaIS2_EE13_Rb_tree_implIS6_Lb1EED1Ev
	nop
	leave
	.cfi_def_cfa 7, 8
	ret
	.cfi_endproc
.LFE2392:
	.section	.gcc_except_table
.LLSDA2392:
	.byte	0xff
	.byte	0xff
	.byte	0x1
	.uleb128 .LLSDACSE2392-.LLSDACSB2392
.LLSDACSB2392:
.LLSDACSE2392:
	.section	.text._ZNSt8_Rb_treeIcSt4pairIKciESt10_Select1stIS2_ESt4lessIcESaIS2_EED2Ev,"axG",@progbits,_ZNSt8_Rb_treeIcSt4pairIKciESt10_Select1stIS2_ESt4lessIcESaIS2_EED5Ev,comdat
	.size	_ZNSt8_Rb_treeIcSt4pairIKciESt10_Select1stIS2_ESt4lessIcESaIS2_EED2Ev, .-_ZNSt8_Rb_treeIcSt4pairIKciESt10_Select1stIS2_ESt4lessIcESaIS2_EED2Ev
	.weak	_ZNSt8_Rb_treeIcSt4pairIKciESt10_Select1stIS2_ESt4lessIcESaIS2_EED1Ev
	.set	_ZNSt8_Rb_treeIcSt4pairIKciESt10_Select1stIS2_ESt4lessIcESaIS2_EED1Ev,_ZNSt8_Rb_treeIcSt4pairIKciESt10_Select1stIS2_ESt4lessIcESaIS2_EED2Ev
	.section	.text._ZNSt17_Rb_tree_iteratorISt4pairIKciEEC2Ev,"axG",@progbits,_ZNSt17_Rb_tree_iteratorISt4pairIKciEEC5Ev,comdat
	.align 2
	.weak	_ZNSt17_Rb_tree_iteratorISt4pairIKciEEC2Ev
	.type	_ZNSt17_Rb_tree_iteratorISt4pairIKciEEC2Ev, @function
_ZNSt17_Rb_tree_iteratorISt4pairIKciEEC2Ev:
.LFB2395:
	.cfi_startproc
	pushq	%rbp
	.cfi_def_cfa_offset 16
	.cfi_offset 6, -16
	movq	%rsp, %rbp
	.cfi_def_cfa_register 6
	movq	%rdi, -8(%rbp)
	movq	-8(%rbp), %rax
	movq	$0, (%rax)
	nop
	popq	%rbp
	.cfi_def_cfa 7, 8
	ret
	.cfi_endproc
.LFE2395:
	.size	_ZNSt17_Rb_tree_iteratorISt4pairIKciEEC2Ev, .-_ZNSt17_Rb_tree_iteratorISt4pairIKciEEC2Ev
	.weak	_ZNSt17_Rb_tree_iteratorISt4pairIKciEEC1Ev
	.set	_ZNSt17_Rb_tree_iteratorISt4pairIKciEEC1Ev,_ZNSt17_Rb_tree_iteratorISt4pairIKciEEC2Ev
	.section	.text._ZSt4moveIRcEONSt16remove_referenceIT_E4typeEOS2_,"axG",@progbits,_ZSt4moveIRcEONSt16remove_referenceIT_E4typeEOS2_,comdat
	.weak	_ZSt4moveIRcEONSt16remove_referenceIT_E4typeEOS2_
	.type	_ZSt4moveIRcEONSt16remove_referenceIT_E4typeEOS2_, @function
_ZSt4moveIRcEONSt16remove_referenceIT_E4typeEOS2_:
.LFB2398:
	.cfi_startproc
	pushq	%rbp
	.cfi_def_cfa_offset 16
	.cfi_offset 6, -16
	movq	%rsp, %rbp
	.cfi_def_cfa_register 6
	movq	%rdi, -8(%rbp)
	movq	-8(%rbp), %rax
	popq	%rbp
	.cfi_def_cfa 7, 8
	ret
	.cfi_endproc
.LFE2398:
	.size	_ZSt4moveIRcEONSt16remove_referenceIT_E4typeEOS2_, .-_ZSt4moveIRcEONSt16remove_referenceIT_E4typeEOS2_
	.section	.text._ZNSt5tupleIJOcEEC2IJcELb1EEEDpOT_,"axG",@progbits,_ZNSt5tupleIJOcEEC5IJcELb1EEEDpOT_,comdat
	.align 2
	.weak	_ZNSt5tupleIJOcEEC2IJcELb1EEEDpOT_
	.type	_ZNSt5tupleIJOcEEC2IJcELb1EEEDpOT_, @function
_ZNSt5tupleIJOcEEC2IJcELb1EEEDpOT_:
.LFB2413:
	.cfi_startproc
	pushq	%rbp
	.cfi_def_cfa_offset 16
	.cfi_offset 6, -16
	movq	%rsp, %rbp
	.cfi_def_cfa_register 6
	pushq	%rbx
	subq	$24, %rsp
	.cfi_offset 3, -24
	movq	%rdi, -24(%rbp)
	movq	%rsi, -32(%rbp)
	movq	-24(%rbp), %rbx
	movq	-32(%rbp), %rax
	movq	%rax, %rdi
	call	_ZSt7forwardIcEOT_RNSt16remove_referenceIS0_E4typeE
	movq	%rax, %rsi
	movq	%rbx, %rdi
	call	_ZNSt11_Tuple_implILm0EJOcEEC2IcEEOT_
	nop
	addq	$24, %rsp
	popq	%rbx
	popq	%rbp
	.cfi_def_cfa 7, 8
	ret
	.cfi_endproc
.LFE2413:
	.size	_ZNSt5tupleIJOcEEC2IJcELb1EEEDpOT_, .-_ZNSt5tupleIJOcEEC2IJcELb1EEEDpOT_
	.weak	_ZNSt5tupleIJOcEEC1IJcELb1EEEDpOT_
	.set	_ZNSt5tupleIJOcEEC1IJcELb1EEEDpOT_,_ZNSt5tupleIJOcEEC2IJcELb1EEEDpOT_
	.section	.text._ZNSt11_Tuple_implILm0EJOcEEC2IcEEOT_,"axG",@progbits,_ZNSt11_Tuple_implILm0EJOcEEC5IcEEOT_,comdat
	.align 2
	.weak	_ZNSt11_Tuple_implILm0EJOcEEC2IcEEOT_
	.type	_ZNSt11_Tuple_implILm0EJOcEEC2IcEEOT_, @function
_ZNSt11_Tuple_implILm0EJOcEEC2IcEEOT_:
.LFB2416:
	.cfi_startproc
	pushq	%rbp
	.cfi_def_cfa_offset 16
	.cfi_offset 6, -16
	movq	%rsp, %rbp
	.cfi_def_cfa_register 6
	pushq	%rbx
	subq	$24, %rsp
	.cfi_offset 3, -24
	movq	%rdi, -24(%rbp)
	movq	%rsi, -32(%rbp)
	movq	-24(%rbp), %rbx
	movq	-32(%rbp), %rax
	movq	%rax, %rdi
	call	_ZSt7forwardIcEOT_RNSt16remove_referenceIS0_E4typeE
	movq	%rax, %rsi
	movq	%rbx, %rdi
	call	_ZNSt10_Head_baseILm0EOcLb0EEC2IcEEOT_
	nop
	addq	$24, %rsp
	popq	%rbx
	popq	%rbp
	.cfi_def_cfa 7, 8
	ret
	.cfi_endproc
.LFE2416:
	.size	_ZNSt11_Tuple_implILm0EJOcEEC2IcEEOT_, .-_ZNSt11_Tuple_implILm0EJOcEEC2IcEEOT_
	.weak	_ZNSt11_Tuple_implILm0EJOcEEC1IcEEOT_
	.set	_ZNSt11_Tuple_implILm0EJOcEEC1IcEEOT_,_ZNSt11_Tuple_implILm0EJOcEEC2IcEEOT_
	.section	.text._ZNSt10_Head_baseILm0EOcLb0EEC2IcEEOT_,"axG",@progbits,_ZNSt10_Head_baseILm0EOcLb0EEC5IcEEOT_,comdat
	.align 2
	.weak	_ZNSt10_Head_baseILm0EOcLb0EEC2IcEEOT_
	.type	_ZNSt10_Head_baseILm0EOcLb0EEC2IcEEOT_, @function
_ZNSt10_Head_baseILm0EOcLb0EEC2IcEEOT_:
.LFB2419:
	.cfi_startproc
	pushq	%rbp
	.cfi_def_cfa_offset 16
	.cfi_offset 6, -16
	movq	%rsp, %rbp
	.cfi_def_cfa_register 6
	subq	$16, %rsp
	movq	%rdi, -8(%rbp)
	movq	%rsi, -16(%rbp)
	movq	-16(%rbp), %rax
	movq	%rax, %rdi
	call	_ZSt7forwardIcEOT_RNSt16remove_referenceIS0_E4typeE
	movq	%rax, %rdx
	movq	-8(%rbp), %rax
	movq	%rdx, (%rax)
	nop
	leave
	.cfi_def_cfa 7, 8
	ret
	.cfi_endproc
.LFE2419:
	.size	_ZNSt10_Head_baseILm0EOcLb0EEC2IcEEOT_, .-_ZNSt10_Head_baseILm0EOcLb0EEC2IcEEOT_
	.weak	_ZNSt10_Head_baseILm0EOcLb0EEC1IcEEOT_
	.set	_ZNSt10_Head_baseILm0EOcLb0EEC1IcEEOT_,_ZNSt10_Head_baseILm0EOcLb0EEC2IcEEOT_
	.section	.text._ZNSt5tupleIJOcEEC2EOS1_,"axG",@progbits,_ZNSt5tupleIJOcEEC5EOS1_,comdat
	.align 2
	.weak	_ZNSt5tupleIJOcEEC2EOS1_
	.type	_ZNSt5tupleIJOcEEC2EOS1_, @function
_ZNSt5tupleIJOcEEC2EOS1_:
.LFB2422:
	.cfi_startproc
	pushq	%rbp
	.cfi_def_cfa_offset 16
	.cfi_offset 6, -16
	movq	%rsp, %rbp
	.cfi_def_cfa_register 6
	subq	$16, %rsp
	movq	%rdi, -8(%rbp)
	movq	%rsi, -16(%rbp)
	movq	-8(%rbp), %rax
	movq	-16(%rbp), %rdx
	movq	%rdx, %rsi
	movq	%rax, %rdi
	call	_ZNSt11_Tuple_implILm0EJOcEEC2EOS1_
	nop
	leave
	.cfi_def_cfa 7, 8
	ret
	.cfi_endproc
.LFE2422:
	.size	_ZNSt5tupleIJOcEEC2EOS1_, .-_ZNSt5tupleIJOcEEC2EOS1_
	.weak	_ZNSt5tupleIJOcEEC1EOS1_
	.set	_ZNSt5tupleIJOcEEC1EOS1_,_ZNSt5tupleIJOcEEC2EOS1_
	.section	.text._ZSt16forward_as_tupleIJcEESt5tupleIJDpOT_EES3_,"axG",@progbits,_ZSt16forward_as_tupleIJcEESt5tupleIJDpOT_EES3_,comdat
	.weak	_ZSt16forward_as_tupleIJcEESt5tupleIJDpOT_EES3_
	.type	_ZSt16forward_as_tupleIJcEESt5tupleIJDpOT_EES3_, @function
_ZSt16forward_as_tupleIJcEESt5tupleIJDpOT_EES3_:
.LFB2399:
	.cfi_startproc
	.cfi_personality 0x9b,DW.ref.__gxx_personality_v0
	.cfi_lsda 0x1b,.LLSDA2399
	pushq	%rbp
	.cfi_def_cfa_offset 16
	.cfi_offset 6, -16
	movq	%rsp, %rbp
	.cfi_def_cfa_register 6
	subq	$16, %rsp
	movq	%rdi, -8(%rbp)
	movq	%rsi, -16(%rbp)
	movq	-16(%rbp), %rax
	movq	%rax, %rdi
	call	_ZSt7forwardIcEOT_RNSt16remove_referenceIS0_E4typeE
	movq	%rax, %rdx
	movq	-8(%rbp), %rax
	movq	%rdx, %rsi
	movq	%rax, %rdi
	call	_ZNSt5tupleIJOcEEC1IJcELb1EEEDpOT_
	movq	-8(%rbp), %rax
	leave
	.cfi_def_cfa 7, 8
	ret
	.cfi_endproc
.LFE2399:
	.section	.gcc_except_table
.LLSDA2399:
	.byte	0xff
	.byte	0xff
	.byte	0x1
	.uleb128 .LLSDACSE2399-.LLSDACSB2399
.LLSDACSB2399:
.LLSDACSE2399:
	.section	.text._ZSt16forward_as_tupleIJcEESt5tupleIJDpOT_EES3_,"axG",@progbits,_ZSt16forward_as_tupleIJcEESt5tupleIJDpOT_EES3_,comdat
	.size	_ZSt16forward_as_tupleIJcEESt5tupleIJDpOT_EES3_, .-_ZSt16forward_as_tupleIJcEESt5tupleIJDpOT_EES3_
	.section	.text._ZNSt3mapIciSt4lessIcESaISt4pairIKciEEEixEOc,"axG",@progbits,_ZNSt3mapIciSt4lessIcESaISt4pairIKciEEEixEOc,comdat
	.align 2
	.weak	_ZNSt3mapIciSt4lessIcESaISt4pairIKciEEEixEOc
	.type	_ZNSt3mapIciSt4lessIcESaISt4pairIKciEEEixEOc, @function
_ZNSt3mapIciSt4lessIcESaISt4pairIKciEEEixEOc:
.LFB2397:
	.cfi_startproc
	pushq	%rbp
	.cfi_def_cfa_offset 16
	.cfi_offset 6, -16
	movq	%rsp, %rbp
	.cfi_def_cfa_register 6
	pushq	%rbx
	subq	$72, %rsp
	.cfi_offset 3, -24
	movq	%rdi, -72(%rbp)
	movq	%rsi, -80(%rbp)
	movq	%fs:40, %rax
	movq	%rax, -24(%rbp)
	xorl	%eax, %eax
	movq	-80(%rbp), %rdx
	movq	-72(%rbp), %rax
	movq	%rdx, %rsi
	movq	%rax, %rdi
	call	_ZNSt3mapIciSt4lessIcESaISt4pairIKciEEE11lower_boundERS3_
	movq	%rax, -48(%rbp)
	movq	-72(%rbp), %rax
	movq	%rax, %rdi
	call	_ZNSt3mapIciSt4lessIcESaISt4pairIKciEEE3endEv
	movq	%rax, -32(%rbp)
	leaq	-32(%rbp), %rdx
	leaq	-48(%rbp), %rax
	movq	%rdx, %rsi
	movq	%rax, %rdi
	call	_ZNKSt17_Rb_tree_iteratorISt4pairIKciEEeqERKS3_
	testb	%al, %al
	jne	.L50
	movq	-72(%rbp), %rax
	movq	%rax, %rdi
	call	_ZNKSt3mapIciSt4lessIcESaISt4pairIKciEEE8key_compEv
	leaq	-48(%rbp), %rax
	movq	%rax, %rdi
	call	_ZNKSt17_Rb_tree_iteratorISt4pairIKciEEdeEv
	movq	%rax, %rdx
	movq	-80(%rbp), %rcx
	leaq	-40(%rbp), %rax
	movq	%rcx, %rsi
	movq	%rax, %rdi
	call	_ZNKSt4lessIcEclERKcS2_
	testb	%al, %al
	je	.L51
.L50:
	movl	$1, %eax
	jmp	.L52
.L51:
	movl	$0, %eax
.L52:
	testb	%al, %al
	je	.L53
	movq	-72(%rbp), %rbx
	movq	-80(%rbp), %rax
	movq	%rax, %rdi
	call	_ZSt4moveIRcEONSt16remove_referenceIT_E4typeEOS2_
	movq	%rax, %rdx
	leaq	-40(%rbp), %rax
	movq	%rdx, %rsi
	movq	%rax, %rdi
	call	_ZSt16forward_as_tupleIJcEESt5tupleIJDpOT_EES3_
	leaq	-48(%rbp), %rdx
	leaq	-32(%rbp), %rax
	movq	%rdx, %rsi
	movq	%rax, %rdi
	call	_ZNSt23_Rb_tree_const_iteratorISt4pairIKciEEC1ERKSt17_Rb_tree_iteratorIS2_E
	leaq	-49(%rbp), %rcx
	leaq	-40(%rbp), %rdx
	movq	-32(%rbp), %rax
	movq	%rcx, %r8
	movq	%rdx, %rcx
	leaq	_ZStL19piecewise_construct(%rip), %rdx
	movq	%rax, %rsi
	movq	%rbx, %rdi
	call	_ZNSt8_Rb_treeIcSt4pairIKciESt10_Select1stIS2_ESt4lessIcESaIS2_EE22_M_emplace_hint_uniqueIJRKSt21piecewise_construct_tSt5tupleIJOcEESD_IJEEEEESt17_Rb_tree_iteratorIS2_ESt23_Rb_tree_const_iteratorIS2_EDpOT_
	movq	%rax, -48(%rbp)
.L53:
	leaq	-48(%rbp), %rax
	movq	%rax, %rdi
	call	_ZNKSt17_Rb_tree_iteratorISt4pairIKciEEdeEv
	addq	$4, %rax
	movq	-24(%rbp), %rbx
	xorq	%fs:40, %rbx
	je	.L55
	call	__stack_chk_fail@PLT
.L55:
	addq	$72, %rsp
	popq	%rbx
	popq	%rbp
	.cfi_def_cfa 7, 8
	ret
	.cfi_endproc
.LFE2397:
	.size	_ZNSt3mapIciSt4lessIcESaISt4pairIKciEEEixEOc, .-_ZNSt3mapIciSt4lessIcESaISt4pairIKciEEEixEOc
	.section	.text._ZNSt3mapIciSt4lessIcESaISt4pairIKciEEE4findERS3_,"axG",@progbits,_ZNSt3mapIciSt4lessIcESaISt4pairIKciEEE4findERS3_,comdat
	.align 2
	.weak	_ZNSt3mapIciSt4lessIcESaISt4pairIKciEEE4findERS3_
	.type	_ZNSt3mapIciSt4lessIcESaISt4pairIKciEEE4findERS3_, @function
_ZNSt3mapIciSt4lessIcESaISt4pairIKciEEE4findERS3_:
.LFB2424:
	.cfi_startproc
	pushq	%rbp
	.cfi_def_cfa_offset 16
	.cfi_offset 6, -16
	movq	%rsp, %rbp
	.cfi_def_cfa_register 6
	subq	$16, %rsp
	movq	%rdi, -8(%rbp)
	movq	%rsi, -16(%rbp)
	movq	-8(%rbp), %rax
	movq	-16(%rbp), %rdx
	movq	%rdx, %rsi
	movq	%rax, %rdi
	call	_ZNSt8_Rb_treeIcSt4pairIKciESt10_Select1stIS2_ESt4lessIcESaIS2_EE4findERS1_
	leave
	.cfi_def_cfa 7, 8
	ret
	.cfi_endproc
.LFE2424:
	.size	_ZNSt3mapIciSt4lessIcESaISt4pairIKciEEE4findERS3_, .-_ZNSt3mapIciSt4lessIcESaISt4pairIKciEEE4findERS3_
	.section	.text._ZNSt3mapIciSt4lessIcESaISt4pairIKciEEE5eraseB5cxx11ESt17_Rb_tree_iteratorIS4_E,"axG",@progbits,_ZNSt3mapIciSt4lessIcESaISt4pairIKciEEE5eraseB5cxx11ESt17_Rb_tree_iteratorIS4_E,comdat
	.align 2
	.weak	_ZNSt3mapIciSt4lessIcESaISt4pairIKciEEE5eraseB5cxx11ESt17_Rb_tree_iteratorIS4_E
	.type	_ZNSt3mapIciSt4lessIcESaISt4pairIKciEEE5eraseB5cxx11ESt17_Rb_tree_iteratorIS4_E, @function
_ZNSt3mapIciSt4lessIcESaISt4pairIKciEEE5eraseB5cxx11ESt17_Rb_tree_iteratorIS4_E:
.LFB2425:
	.cfi_startproc
	pushq	%rbp
	.cfi_def_cfa_offset 16
	.cfi_offset 6, -16
	movq	%rsp, %rbp
	.cfi_def_cfa_register 6
	subq	$16, %rsp
	movq	%rdi, -8(%rbp)
	movq	%rsi, -16(%rbp)
	movq	-8(%rbp), %rax
	movq	-16(%rbp), %rdx
	movq	%rdx, %rsi
	movq	%rax, %rdi
	call	_ZNSt8_Rb_treeIcSt4pairIKciESt10_Select1stIS2_ESt4lessIcESaIS2_EE5eraseB5cxx11ESt17_Rb_tree_iteratorIS2_E
	leave
	.cfi_def_cfa 7, 8
	ret
	.cfi_endproc
.LFE2425:
	.size	_ZNSt3mapIciSt4lessIcESaISt4pairIKciEEE5eraseB5cxx11ESt17_Rb_tree_iteratorIS4_E, .-_ZNSt3mapIciSt4lessIcESaISt4pairIKciEEE5eraseB5cxx11ESt17_Rb_tree_iteratorIS4_E
	.section	.text._ZNSt3mapIciSt4lessIcESaISt4pairIKciEEE5eraseERS3_,"axG",@progbits,_ZNSt3mapIciSt4lessIcESaISt4pairIKciEEE5eraseERS3_,comdat
	.align 2
	.weak	_ZNSt3mapIciSt4lessIcESaISt4pairIKciEEE5eraseERS3_
	.type	_ZNSt3mapIciSt4lessIcESaISt4pairIKciEEE5eraseERS3_, @function
_ZNSt3mapIciSt4lessIcESaISt4pairIKciEEE5eraseERS3_:
.LFB2426:
	.cfi_startproc
	pushq	%rbp
	.cfi_def_cfa_offset 16
	.cfi_offset 6, -16
	movq	%rsp, %rbp
	.cfi_def_cfa_register 6
	subq	$16, %rsp
	movq	%rdi, -8(%rbp)
	movq	%rsi, -16(%rbp)
	movq	-8(%rbp), %rax
	movq	-16(%rbp), %rdx
	movq	%rdx, %rsi
	movq	%rax, %rdi
	call	_ZNSt8_Rb_treeIcSt4pairIKciESt10_Select1stIS2_ESt4lessIcESaIS2_EE5eraseERS1_
	leave
	.cfi_def_cfa 7, 8
	ret
	.cfi_endproc
.LFE2426:
	.size	_ZNSt3mapIciSt4lessIcESaISt4pairIKciEEE5eraseERS3_, .-_ZNSt3mapIciSt4lessIcESaISt4pairIKciEEE5eraseERS3_
	.section	.text._ZNSt3mapIciSt4lessIcESaISt4pairIKciEEE3endEv,"axG",@progbits,_ZNSt3mapIciSt4lessIcESaISt4pairIKciEEE3endEv,comdat
	.align 2
	.weak	_ZNSt3mapIciSt4lessIcESaISt4pairIKciEEE3endEv
	.type	_ZNSt3mapIciSt4lessIcESaISt4pairIKciEEE3endEv, @function
_ZNSt3mapIciSt4lessIcESaISt4pairIKciEEE3endEv:
.LFB2427:
	.cfi_startproc
	pushq	%rbp
	.cfi_def_cfa_offset 16
	.cfi_offset 6, -16
	movq	%rsp, %rbp
	.cfi_def_cfa_register 6
	subq	$16, %rsp
	movq	%rdi, -8(%rbp)
	movq	-8(%rbp), %rax
	movq	%rax, %rdi
	call	_ZNSt8_Rb_treeIcSt4pairIKciESt10_Select1stIS2_ESt4lessIcESaIS2_EE3endEv
	leave
	.cfi_def_cfa 7, 8
	ret
	.cfi_endproc
.LFE2427:
	.size	_ZNSt3mapIciSt4lessIcESaISt4pairIKciEEE3endEv, .-_ZNSt3mapIciSt4lessIcESaISt4pairIKciEEE3endEv
	.section	.text._ZNSt23_Rb_tree_const_iteratorISt4pairIKciEEC2ERKSt17_Rb_tree_iteratorIS2_E,"axG",@progbits,_ZNSt23_Rb_tree_const_iteratorISt4pairIKciEEC5ERKSt17_Rb_tree_iteratorIS2_E,comdat
	.align 2
	.weak	_ZNSt23_Rb_tree_const_iteratorISt4pairIKciEEC2ERKSt17_Rb_tree_iteratorIS2_E
	.type	_ZNSt23_Rb_tree_const_iteratorISt4pairIKciEEC2ERKSt17_Rb_tree_iteratorIS2_E, @function
_ZNSt23_Rb_tree_const_iteratorISt4pairIKciEEC2ERKSt17_Rb_tree_iteratorIS2_E:
.LFB2429:
	.cfi_startproc
	pushq	%rbp
	.cfi_def_cfa_offset 16
	.cfi_offset 6, -16
	movq	%rsp, %rbp
	.cfi_def_cfa_register 6
	movq	%rdi, -8(%rbp)
	movq	%rsi, -16(%rbp)
	movq	-16(%rbp), %rax
	movq	(%rax), %rdx
	movq	-8(%rbp), %rax
	movq	%rdx, (%rax)
	nop
	popq	%rbp
	.cfi_def_cfa 7, 8
	ret
	.cfi_endproc
.LFE2429:
	.size	_ZNSt23_Rb_tree_const_iteratorISt4pairIKciEEC2ERKSt17_Rb_tree_iteratorIS2_E, .-_ZNSt23_Rb_tree_const_iteratorISt4pairIKciEEC2ERKSt17_Rb_tree_iteratorIS2_E
	.weak	_ZNSt23_Rb_tree_const_iteratorISt4pairIKciEEC1ERKSt17_Rb_tree_iteratorIS2_E
	.set	_ZNSt23_Rb_tree_const_iteratorISt4pairIKciEEC1ERKSt17_Rb_tree_iteratorIS2_E,_ZNSt23_Rb_tree_const_iteratorISt4pairIKciEEC2ERKSt17_Rb_tree_iteratorIS2_E
	.section	.text._ZNSt3mapIciSt4lessIcESaISt4pairIKciEEE5eraseESt23_Rb_tree_const_iteratorIS4_ES8_,"axG",@progbits,_ZNSt3mapIciSt4lessIcESaISt4pairIKciEEE5eraseESt23_Rb_tree_const_iteratorIS4_ES8_,comdat
	.align 2
	.weak	_ZNSt3mapIciSt4lessIcESaISt4pairIKciEEE5eraseESt23_Rb_tree_const_iteratorIS4_ES8_
	.type	_ZNSt3mapIciSt4lessIcESaISt4pairIKciEEE5eraseESt23_Rb_tree_const_iteratorIS4_ES8_, @function
_ZNSt3mapIciSt4lessIcESaISt4pairIKciEEE5eraseESt23_Rb_tree_const_iteratorIS4_ES8_:
.LFB2431:
	.cfi_startproc
	pushq	%rbp
	.cfi_def_cfa_offset 16
	.cfi_offset 6, -16
	movq	%rsp, %rbp
	.cfi_def_cfa_register 6
	subq	$32, %rsp
	movq	%rdi, -8(%rbp)
	movq	%rsi, -16(%rbp)
	movq	%rdx, -24(%rbp)
	movq	-8(%rbp), %rax
	movq	-24(%rbp), %rdx
	movq	-16(%rbp), %rcx
	movq	%rcx, %rsi
	movq	%rax, %rdi
	call	_ZNSt8_Rb_treeIcSt4pairIKciESt10_Select1stIS2_ESt4lessIcESaIS2_EE5eraseB5cxx11ESt23_Rb_tree_const_iteratorIS2_ESA_
	leave
	.cfi_def_cfa 7, 8
	ret
	.cfi_endproc
.LFE2431:
	.size	_ZNSt3mapIciSt4lessIcESaISt4pairIKciEEE5eraseESt23_Rb_tree_const_iteratorIS4_ES8_, .-_ZNSt3mapIciSt4lessIcESaISt4pairIKciEEE5eraseESt23_Rb_tree_const_iteratorIS4_ES8_
	.section	.text._ZNSt3mapIciSt4lessIcESaISt4pairIKciEEE5beginEv,"axG",@progbits,_ZNSt3mapIciSt4lessIcESaISt4pairIKciEEE5beginEv,comdat
	.align 2
	.weak	_ZNSt3mapIciSt4lessIcESaISt4pairIKciEEE5beginEv
	.type	_ZNSt3mapIciSt4lessIcESaISt4pairIKciEEE5beginEv, @function
_ZNSt3mapIciSt4lessIcESaISt4pairIKciEEE5beginEv:
.LFB2432:
	.cfi_startproc
	pushq	%rbp
	.cfi_def_cfa_offset 16
	.cfi_offset 6, -16
	movq	%rsp, %rbp
	.cfi_def_cfa_register 6
	subq	$16, %rsp
	movq	%rdi, -8(%rbp)
	movq	-8(%rbp), %rax
	movq	%rax, %rdi
	call	_ZNSt8_Rb_treeIcSt4pairIKciESt10_Select1stIS2_ESt4lessIcESaIS2_EE5beginEv
	leave
	.cfi_def_cfa 7, 8
	ret
	.cfi_endproc
.LFE2432:
	.size	_ZNSt3mapIciSt4lessIcESaISt4pairIKciEEE5beginEv, .-_ZNSt3mapIciSt4lessIcESaISt4pairIKciEEE5beginEv
	.section	.text._ZNKSt17_Rb_tree_iteratorISt4pairIKciEEneERKS3_,"axG",@progbits,_ZNKSt17_Rb_tree_iteratorISt4pairIKciEEneERKS3_,comdat
	.align 2
	.weak	_ZNKSt17_Rb_tree_iteratorISt4pairIKciEEneERKS3_
	.type	_ZNKSt17_Rb_tree_iteratorISt4pairIKciEEneERKS3_, @function
_ZNKSt17_Rb_tree_iteratorISt4pairIKciEEneERKS3_:
.LFB2433:
	.cfi_startproc
	pushq	%rbp
	.cfi_def_cfa_offset 16
	.cfi_offset 6, -16
	movq	%rsp, %rbp
	.cfi_def_cfa_register 6
	movq	%rdi, -8(%rbp)
	movq	%rsi, -16(%rbp)
	movq	-8(%rbp), %rax
	movq	(%rax), %rdx
	movq	-16(%rbp), %rax
	movq	(%rax), %rax
	cmpq	%rax, %rdx
	setne	%al
	popq	%rbp
	.cfi_def_cfa 7, 8
	ret
	.cfi_endproc
.LFE2433:
	.size	_ZNKSt17_Rb_tree_iteratorISt4pairIKciEEneERKS3_, .-_ZNKSt17_Rb_tree_iteratorISt4pairIKciEEneERKS3_
	.section	.text._ZNSt17_Rb_tree_iteratorISt4pairIKciEEppEv,"axG",@progbits,_ZNSt17_Rb_tree_iteratorISt4pairIKciEEppEv,comdat
	.align 2
	.weak	_ZNSt17_Rb_tree_iteratorISt4pairIKciEEppEv
	.type	_ZNSt17_Rb_tree_iteratorISt4pairIKciEEppEv, @function
_ZNSt17_Rb_tree_iteratorISt4pairIKciEEppEv:
.LFB2434:
	.cfi_startproc
	pushq	%rbp
	.cfi_def_cfa_offset 16
	.cfi_offset 6, -16
	movq	%rsp, %rbp
	.cfi_def_cfa_register 6
	subq	$16, %rsp
	movq	%rdi, -8(%rbp)
	movq	-8(%rbp), %rax
	movq	(%rax), %rax
	movq	%rax, %rdi
	call	_ZSt18_Rb_tree_incrementPSt18_Rb_tree_node_base@PLT
	movq	%rax, %rdx
	movq	-8(%rbp), %rax
	movq	%rdx, (%rax)
	movq	-8(%rbp), %rax
	leave
	.cfi_def_cfa 7, 8
	ret
	.cfi_endproc
.LFE2434:
	.size	_ZNSt17_Rb_tree_iteratorISt4pairIKciEEppEv, .-_ZNSt17_Rb_tree_iteratorISt4pairIKciEEppEv
	.section	.text._ZNKSt17_Rb_tree_iteratorISt4pairIKciEEptEv,"axG",@progbits,_ZNKSt17_Rb_tree_iteratorISt4pairIKciEEptEv,comdat
	.align 2
	.weak	_ZNKSt17_Rb_tree_iteratorISt4pairIKciEEptEv
	.type	_ZNKSt17_Rb_tree_iteratorISt4pairIKciEEptEv, @function
_ZNKSt17_Rb_tree_iteratorISt4pairIKciEEptEv:
.LFB2435:
	.cfi_startproc
	pushq	%rbp
	.cfi_def_cfa_offset 16
	.cfi_offset 6, -16
	movq	%rsp, %rbp
	.cfi_def_cfa_register 6
	subq	$16, %rsp
	movq	%rdi, -8(%rbp)
	movq	-8(%rbp), %rax
	movq	(%rax), %rax
	movq	%rax, %rdi
	call	_ZNSt13_Rb_tree_nodeISt4pairIKciEE9_M_valptrEv
	leave
	.cfi_def_cfa 7, 8
	ret
	.cfi_endproc
.LFE2435:
	.size	_ZNKSt17_Rb_tree_iteratorISt4pairIKciEEptEv, .-_ZNKSt17_Rb_tree_iteratorISt4pairIKciEEptEv
	.section	.text._ZNSt8_Rb_treeIiSt4pairIKicESt10_Select1stIS2_ESt4lessIiESaIS2_EE13_Rb_tree_implIS6_Lb1EEC2Ev,"axG",@progbits,_ZNSt8_Rb_treeIiSt4pairIKicESt10_Select1stIS2_ESt4lessIiESaIS2_EE13_Rb_tree_implIS6_Lb1EEC5Ev,comdat
	.align 2
	.weak	_ZNSt8_Rb_treeIiSt4pairIKicESt10_Select1stIS2_ESt4lessIiESaIS2_EE13_Rb_tree_implIS6_Lb1EEC2Ev
	.type	_ZNSt8_Rb_treeIiSt4pairIKicESt10_Select1stIS2_ESt4lessIiESaIS2_EE13_Rb_tree_implIS6_Lb1EEC2Ev, @function
_ZNSt8_Rb_treeIiSt4pairIKicESt10_Select1stIS2_ESt4lessIiESaIS2_EE13_Rb_tree_implIS6_Lb1EEC2Ev:
.LFB2441:
	.cfi_startproc
	pushq	%rbp
	.cfi_def_cfa_offset 16
	.cfi_offset 6, -16
	movq	%rsp, %rbp
	.cfi_def_cfa_register 6
	subq	$16, %rsp
	movq	%rdi, -8(%rbp)
	movq	-8(%rbp), %rax
	movq	%rax, %rdi
	call	_ZNSaISt13_Rb_tree_nodeISt4pairIKicEEEC2Ev
	movq	-8(%rbp), %rax
	movq	%rax, %rdi
	call	_ZNSt20_Rb_tree_key_compareISt4lessIiEEC2Ev
	movq	-8(%rbp), %rax
	addq	$8, %rax
	movq	%rax, %rdi
	call	_ZNSt15_Rb_tree_headerC2Ev
	nop
	leave
	.cfi_def_cfa 7, 8
	ret
	.cfi_endproc
.LFE2441:
	.size	_ZNSt8_Rb_treeIiSt4pairIKicESt10_Select1stIS2_ESt4lessIiESaIS2_EE13_Rb_tree_implIS6_Lb1EEC2Ev, .-_ZNSt8_Rb_treeIiSt4pairIKicESt10_Select1stIS2_ESt4lessIiESaIS2_EE13_Rb_tree_implIS6_Lb1EEC2Ev
	.weak	_ZNSt8_Rb_treeIiSt4pairIKicESt10_Select1stIS2_ESt4lessIiESaIS2_EE13_Rb_tree_implIS6_Lb1EEC1Ev
	.set	_ZNSt8_Rb_treeIiSt4pairIKicESt10_Select1stIS2_ESt4lessIiESaIS2_EE13_Rb_tree_implIS6_Lb1EEC1Ev,_ZNSt8_Rb_treeIiSt4pairIKicESt10_Select1stIS2_ESt4lessIiESaIS2_EE13_Rb_tree_implIS6_Lb1EEC2Ev
	.section	.text._ZNSaISt13_Rb_tree_nodeISt4pairIKicEEED2Ev,"axG",@progbits,_ZNSaISt13_Rb_tree_nodeISt4pairIKicEEED5Ev,comdat
	.align 2
	.weak	_ZNSaISt13_Rb_tree_nodeISt4pairIKicEEED2Ev
	.type	_ZNSaISt13_Rb_tree_nodeISt4pairIKicEEED2Ev, @function
_ZNSaISt13_Rb_tree_nodeISt4pairIKicEEED2Ev:
.LFB2444:
	.cfi_startproc
	pushq	%rbp
	.cfi_def_cfa_offset 16
	.cfi_offset 6, -16
	movq	%rsp, %rbp
	.cfi_def_cfa_register 6
	subq	$16, %rsp
	movq	%rdi, -8(%rbp)
	movq	-8(%rbp), %rax
	movq	%rax, %rdi
	call	_ZN9__gnu_cxx13new_allocatorISt13_Rb_tree_nodeISt4pairIKicEEED2Ev
	nop
	leave
	.cfi_def_cfa 7, 8
	ret
	.cfi_endproc
.LFE2444:
	.size	_ZNSaISt13_Rb_tree_nodeISt4pairIKicEEED2Ev, .-_ZNSaISt13_Rb_tree_nodeISt4pairIKicEEED2Ev
	.weak	_ZNSaISt13_Rb_tree_nodeISt4pairIKicEEED1Ev
	.set	_ZNSaISt13_Rb_tree_nodeISt4pairIKicEEED1Ev,_ZNSaISt13_Rb_tree_nodeISt4pairIKicEEED2Ev
	.section	.text._ZNSt8_Rb_treeIiSt4pairIKicESt10_Select1stIS2_ESt4lessIiESaIS2_EED2Ev,"axG",@progbits,_ZNSt8_Rb_treeIiSt4pairIKicESt10_Select1stIS2_ESt4lessIiESaIS2_EED5Ev,comdat
	.align 2
	.weak	_ZNSt8_Rb_treeIiSt4pairIKicESt10_Select1stIS2_ESt4lessIiESaIS2_EED2Ev
	.type	_ZNSt8_Rb_treeIiSt4pairIKicESt10_Select1stIS2_ESt4lessIiESaIS2_EED2Ev, @function
_ZNSt8_Rb_treeIiSt4pairIKicESt10_Select1stIS2_ESt4lessIiESaIS2_EED2Ev:
.LFB2447:
	.cfi_startproc
	.cfi_personality 0x9b,DW.ref.__gxx_personality_v0
	.cfi_lsda 0x1b,.LLSDA2447
	pushq	%rbp
	.cfi_def_cfa_offset 16
	.cfi_offset 6, -16
	movq	%rsp, %rbp
	.cfi_def_cfa_register 6
	subq	$16, %rsp
	movq	%rdi, -8(%rbp)
	movq	-8(%rbp), %rax
	movq	%rax, %rdi
	call	_ZNSt8_Rb_treeIiSt4pairIKicESt10_Select1stIS2_ESt4lessIiESaIS2_EE8_M_beginEv
	movq	%rax, %rdx
	movq	-8(%rbp), %rax
	movq	%rdx, %rsi
	movq	%rax, %rdi
	call	_ZNSt8_Rb_treeIiSt4pairIKicESt10_Select1stIS2_ESt4lessIiESaIS2_EE8_M_eraseEPSt13_Rb_tree_nodeIS2_E
	movq	-8(%rbp), %rax
	movq	%rax, %rdi
	call	_ZNSt8_Rb_treeIiSt4pairIKicESt10_Select1stIS2_ESt4lessIiESaIS2_EE13_Rb_tree_implIS6_Lb1EED1Ev
	nop
	leave
	.cfi_def_cfa 7, 8
	ret
	.cfi_endproc
.LFE2447:
	.section	.gcc_except_table
.LLSDA2447:
	.byte	0xff
	.byte	0xff
	.byte	0x1
	.uleb128 .LLSDACSE2447-.LLSDACSB2447
.LLSDACSB2447:
.LLSDACSE2447:
	.section	.text._ZNSt8_Rb_treeIiSt4pairIKicESt10_Select1stIS2_ESt4lessIiESaIS2_EED2Ev,"axG",@progbits,_ZNSt8_Rb_treeIiSt4pairIKicESt10_Select1stIS2_ESt4lessIiESaIS2_EED5Ev,comdat
	.size	_ZNSt8_Rb_treeIiSt4pairIKicESt10_Select1stIS2_ESt4lessIiESaIS2_EED2Ev, .-_ZNSt8_Rb_treeIiSt4pairIKicESt10_Select1stIS2_ESt4lessIiESaIS2_EED2Ev
	.weak	_ZNSt8_Rb_treeIiSt4pairIKicESt10_Select1stIS2_ESt4lessIiESaIS2_EED1Ev
	.set	_ZNSt8_Rb_treeIiSt4pairIKicESt10_Select1stIS2_ESt4lessIiESaIS2_EED1Ev,_ZNSt8_Rb_treeIiSt4pairIKicESt10_Select1stIS2_ESt4lessIiESaIS2_EED2Ev
	.section	.text._ZNSt17_Rb_tree_iteratorISt4pairIKicEEC2Ev,"axG",@progbits,_ZNSt17_Rb_tree_iteratorISt4pairIKicEEC5Ev,comdat
	.align 2
	.weak	_ZNSt17_Rb_tree_iteratorISt4pairIKicEEC2Ev
	.type	_ZNSt17_Rb_tree_iteratorISt4pairIKicEEC2Ev, @function
_ZNSt17_Rb_tree_iteratorISt4pairIKicEEC2Ev:
.LFB2450:
	.cfi_startproc
	pushq	%rbp
	.cfi_def_cfa_offset 16
	.cfi_offset 6, -16
	movq	%rsp, %rbp
	.cfi_def_cfa_register 6
	movq	%rdi, -8(%rbp)
	movq	-8(%rbp), %rax
	movq	$0, (%rax)
	nop
	popq	%rbp
	.cfi_def_cfa 7, 8
	ret
	.cfi_endproc
.LFE2450:
	.size	_ZNSt17_Rb_tree_iteratorISt4pairIKicEEC2Ev, .-_ZNSt17_Rb_tree_iteratorISt4pairIKicEEC2Ev
	.weak	_ZNSt17_Rb_tree_iteratorISt4pairIKicEEC1Ev
	.set	_ZNSt17_Rb_tree_iteratorISt4pairIKicEEC1Ev,_ZNSt17_Rb_tree_iteratorISt4pairIKicEEC2Ev
	.section	.text._ZSt7forwardISt4pairIicEEOT_RNSt16remove_referenceIS2_E4typeE,"axG",@progbits,_ZSt7forwardISt4pairIicEEOT_RNSt16remove_referenceIS2_E4typeE,comdat
	.weak	_ZSt7forwardISt4pairIicEEOT_RNSt16remove_referenceIS2_E4typeE
	.type	_ZSt7forwardISt4pairIicEEOT_RNSt16remove_referenceIS2_E4typeE, @function
_ZSt7forwardISt4pairIicEEOT_RNSt16remove_referenceIS2_E4typeE:
.LFB2453:
	.cfi_startproc
	pushq	%rbp
	.cfi_def_cfa_offset 16
	.cfi_offset 6, -16
	movq	%rsp, %rbp
	.cfi_def_cfa_register 6
	movq	%rdi, -8(%rbp)
	movq	-8(%rbp), %rax
	popq	%rbp
	.cfi_def_cfa 7, 8
	ret
	.cfi_endproc
.LFE2453:
	.size	_ZSt7forwardISt4pairIicEEOT_RNSt16remove_referenceIS2_E4typeE, .-_ZSt7forwardISt4pairIicEEOT_RNSt16remove_referenceIS2_E4typeE
	.section	.text._ZNSt3mapIicSt4lessIiESaISt4pairIKicEEE6insertIS2_IicEEENSt9enable_ifIXsrSt16is_constructibleIS4_JT_EE5valueES2_ISt17_Rb_tree_iteratorIS4_EbEE4typeEOSB_,"axG",@progbits,_ZNSt3mapIicSt4lessIiESaISt4pairIKicEEE6insertIS2_IicEEENSt9enable_ifIXsrSt16is_constructibleIS4_JT_EE5valueES2_ISt17_Rb_tree_iteratorIS4_EbEE4typeEOSB_,comdat
	.align 2
	.weak	_ZNSt3mapIicSt4lessIiESaISt4pairIKicEEE6insertIS2_IicEEENSt9enable_ifIXsrSt16is_constructibleIS4_JT_EE5valueES2_ISt17_Rb_tree_iteratorIS4_EbEE4typeEOSB_
	.type	_ZNSt3mapIicSt4lessIiESaISt4pairIKicEEE6insertIS2_IicEEENSt9enable_ifIXsrSt16is_constructibleIS4_JT_EE5valueES2_ISt17_Rb_tree_iteratorIS4_EbEE4typeEOSB_, @function
_ZNSt3mapIicSt4lessIiESaISt4pairIKicEEE6insertIS2_IicEEENSt9enable_ifIXsrSt16is_constructibleIS4_JT_EE5valueES2_ISt17_Rb_tree_iteratorIS4_EbEE4typeEOSB_:
.LFB2452:
	.cfi_startproc
	pushq	%rbp
	.cfi_def_cfa_offset 16
	.cfi_offset 6, -16
	movq	%rsp, %rbp
	.cfi_def_cfa_register 6
	pushq	%rbx
	subq	$24, %rsp
	.cfi_offset 3, -24
	movq	%rdi, -24(%rbp)
	movq	%rsi, -32(%rbp)
	movq	-24(%rbp), %rbx
	movq	-32(%rbp), %rax
	movq	%rax, %rdi
	call	_ZSt7forwardISt4pairIicEEOT_RNSt16remove_referenceIS2_E4typeE
	movq	%rax, %rsi
	movq	%rbx, %rdi
	call	_ZNSt8_Rb_treeIiSt4pairIKicESt10_Select1stIS2_ESt4lessIiESaIS2_EE17_M_emplace_uniqueIJS0_IicEEEES0_ISt17_Rb_tree_iteratorIS2_EbEDpOT_
	addq	$24, %rsp
	popq	%rbx
	popq	%rbp
	.cfi_def_cfa 7, 8
	ret
	.cfi_endproc
.LFE2452:
	.size	_ZNSt3mapIicSt4lessIiESaISt4pairIKicEEE6insertIS2_IicEEENSt9enable_ifIXsrSt16is_constructibleIS4_JT_EE5valueES2_ISt17_Rb_tree_iteratorIS4_EbEE4typeEOSB_, .-_ZNSt3mapIicSt4lessIiESaISt4pairIKicEEE6insertIS2_IicEEENSt9enable_ifIXsrSt16is_constructibleIS4_JT_EE5valueES2_ISt17_Rb_tree_iteratorIS4_EbEE4typeEOSB_
	.section	.text._ZNSt3mapIicSt4lessIiESaISt4pairIKicEEE5beginEv,"axG",@progbits,_ZNSt3mapIicSt4lessIiESaISt4pairIKicEEE5beginEv,comdat
	.align 2
	.weak	_ZNSt3mapIicSt4lessIiESaISt4pairIKicEEE5beginEv
	.type	_ZNSt3mapIicSt4lessIiESaISt4pairIKicEEE5beginEv, @function
_ZNSt3mapIicSt4lessIiESaISt4pairIKicEEE5beginEv:
.LFB2458:
	.cfi_startproc
	pushq	%rbp
	.cfi_def_cfa_offset 16
	.cfi_offset 6, -16
	movq	%rsp, %rbp
	.cfi_def_cfa_register 6
	subq	$16, %rsp
	movq	%rdi, -8(%rbp)
	movq	-8(%rbp), %rax
	movq	%rax, %rdi
	call	_ZNSt8_Rb_treeIiSt4pairIKicESt10_Select1stIS2_ESt4lessIiESaIS2_EE5beginEv
	leave
	.cfi_def_cfa 7, 8
	ret
	.cfi_endproc
.LFE2458:
	.size	_ZNSt3mapIicSt4lessIiESaISt4pairIKicEEE5beginEv, .-_ZNSt3mapIicSt4lessIiESaISt4pairIKicEEE5beginEv
	.section	.text._ZNSt3mapIicSt4lessIiESaISt4pairIKicEEE3endEv,"axG",@progbits,_ZNSt3mapIicSt4lessIiESaISt4pairIKicEEE3endEv,comdat
	.align 2
	.weak	_ZNSt3mapIicSt4lessIiESaISt4pairIKicEEE3endEv
	.type	_ZNSt3mapIicSt4lessIiESaISt4pairIKicEEE3endEv, @function
_ZNSt3mapIicSt4lessIiESaISt4pairIKicEEE3endEv:
.LFB2459:
	.cfi_startproc
	pushq	%rbp
	.cfi_def_cfa_offset 16
	.cfi_offset 6, -16
	movq	%rsp, %rbp
	.cfi_def_cfa_register 6
	subq	$16, %rsp
	movq	%rdi, -8(%rbp)
	movq	-8(%rbp), %rax
	movq	%rax, %rdi
	call	_ZNSt8_Rb_treeIiSt4pairIKicESt10_Select1stIS2_ESt4lessIiESaIS2_EE3endEv
	leave
	.cfi_def_cfa 7, 8
	ret
	.cfi_endproc
.LFE2459:
	.size	_ZNSt3mapIicSt4lessIiESaISt4pairIKicEEE3endEv, .-_ZNSt3mapIicSt4lessIiESaISt4pairIKicEEE3endEv
	.section	.text._ZNKSt17_Rb_tree_iteratorISt4pairIKicEEneERKS3_,"axG",@progbits,_ZNKSt17_Rb_tree_iteratorISt4pairIKicEEneERKS3_,comdat
	.align 2
	.weak	_ZNKSt17_Rb_tree_iteratorISt4pairIKicEEneERKS3_
	.type	_ZNKSt17_Rb_tree_iteratorISt4pairIKicEEneERKS3_, @function
_ZNKSt17_Rb_tree_iteratorISt4pairIKicEEneERKS3_:
.LFB2460:
	.cfi_startproc
	pushq	%rbp
	.cfi_def_cfa_offset 16
	.cfi_offset 6, -16
	movq	%rsp, %rbp
	.cfi_def_cfa_register 6
	movq	%rdi, -8(%rbp)
	movq	%rsi, -16(%rbp)
	movq	-8(%rbp), %rax
	movq	(%rax), %rdx
	movq	-16(%rbp), %rax
	movq	(%rax), %rax
	cmpq	%rax, %rdx
	setne	%al
	popq	%rbp
	.cfi_def_cfa 7, 8
	ret
	.cfi_endproc
.LFE2460:
	.size	_ZNKSt17_Rb_tree_iteratorISt4pairIKicEEneERKS3_, .-_ZNKSt17_Rb_tree_iteratorISt4pairIKicEEneERKS3_
	.section	.text._ZNSt17_Rb_tree_iteratorISt4pairIKicEEppEv,"axG",@progbits,_ZNSt17_Rb_tree_iteratorISt4pairIKicEEppEv,comdat
	.align 2
	.weak	_ZNSt17_Rb_tree_iteratorISt4pairIKicEEppEv
	.type	_ZNSt17_Rb_tree_iteratorISt4pairIKicEEppEv, @function
_ZNSt17_Rb_tree_iteratorISt4pairIKicEEppEv:
.LFB2461:
	.cfi_startproc
	pushq	%rbp
	.cfi_def_cfa_offset 16
	.cfi_offset 6, -16
	movq	%rsp, %rbp
	.cfi_def_cfa_register 6
	subq	$16, %rsp
	movq	%rdi, -8(%rbp)
	movq	-8(%rbp), %rax
	movq	(%rax), %rax
	movq	%rax, %rdi
	call	_ZSt18_Rb_tree_incrementPSt18_Rb_tree_node_base@PLT
	movq	%rax, %rdx
	movq	-8(%rbp), %rax
	movq	%rdx, (%rax)
	movq	-8(%rbp), %rax
	leave
	.cfi_def_cfa 7, 8
	ret
	.cfi_endproc
.LFE2461:
	.size	_ZNSt17_Rb_tree_iteratorISt4pairIKicEEppEv, .-_ZNSt17_Rb_tree_iteratorISt4pairIKicEEppEv
	.section	.text._ZNKSt17_Rb_tree_iteratorISt4pairIKicEEptEv,"axG",@progbits,_ZNKSt17_Rb_tree_iteratorISt4pairIKicEEptEv,comdat
	.align 2
	.weak	_ZNKSt17_Rb_tree_iteratorISt4pairIKicEEptEv
	.type	_ZNKSt17_Rb_tree_iteratorISt4pairIKicEEptEv, @function
_ZNKSt17_Rb_tree_iteratorISt4pairIKicEEptEv:
.LFB2462:
	.cfi_startproc
	pushq	%rbp
	.cfi_def_cfa_offset 16
	.cfi_offset 6, -16
	movq	%rsp, %rbp
	.cfi_def_cfa_register 6
	subq	$16, %rsp
	movq	%rdi, -8(%rbp)
	movq	-8(%rbp), %rax
	movq	(%rax), %rax
	movq	%rax, %rdi
	call	_ZNSt13_Rb_tree_nodeISt4pairIKicEE9_M_valptrEv
	leave
	.cfi_def_cfa 7, 8
	ret
	.cfi_endproc
.LFE2462:
	.size	_ZNKSt17_Rb_tree_iteratorISt4pairIKicEEptEv, .-_ZNKSt17_Rb_tree_iteratorISt4pairIKicEEptEv
	.section	.text._ZNSt3mapIicSt4lessIiESaISt4pairIKicEEE4findERS3_,"axG",@progbits,_ZNSt3mapIicSt4lessIiESaISt4pairIKicEEE4findERS3_,comdat
	.align 2
	.weak	_ZNSt3mapIicSt4lessIiESaISt4pairIKicEEE4findERS3_
	.type	_ZNSt3mapIicSt4lessIiESaISt4pairIKicEEE4findERS3_, @function
_ZNSt3mapIicSt4lessIiESaISt4pairIKicEEE4findERS3_:
.LFB2463:
	.cfi_startproc
	pushq	%rbp
	.cfi_def_cfa_offset 16
	.cfi_offset 6, -16
	movq	%rsp, %rbp
	.cfi_def_cfa_register 6
	subq	$16, %rsp
	movq	%rdi, -8(%rbp)
	movq	%rsi, -16(%rbp)
	movq	-8(%rbp), %rax
	movq	-16(%rbp), %rdx
	movq	%rdx, %rsi
	movq	%rax, %rdi
	call	_ZNSt8_Rb_treeIiSt4pairIKicESt10_Select1stIS2_ESt4lessIiESaIS2_EE4findERS1_
	leave
	.cfi_def_cfa 7, 8
	ret
	.cfi_endproc
.LFE2463:
	.size	_ZNSt3mapIicSt4lessIiESaISt4pairIKicEEE4findERS3_, .-_ZNSt3mapIicSt4lessIiESaISt4pairIKicEEE4findERS3_
	.section	.text._ZNKSt17_Rb_tree_iteratorISt4pairIKicEEeqERKS3_,"axG",@progbits,_ZNKSt17_Rb_tree_iteratorISt4pairIKicEEeqERKS3_,comdat
	.align 2
	.weak	_ZNKSt17_Rb_tree_iteratorISt4pairIKicEEeqERKS3_
	.type	_ZNKSt17_Rb_tree_iteratorISt4pairIKicEEeqERKS3_, @function
_ZNKSt17_Rb_tree_iteratorISt4pairIKicEEeqERKS3_:
.LFB2464:
	.cfi_startproc
	pushq	%rbp
	.cfi_def_cfa_offset 16
	.cfi_offset 6, -16
	movq	%rsp, %rbp
	.cfi_def_cfa_register 6
	movq	%rdi, -8(%rbp)
	movq	%rsi, -16(%rbp)
	movq	-8(%rbp), %rax
	movq	(%rax), %rdx
	movq	-16(%rbp), %rax
	movq	(%rax), %rax
	cmpq	%rax, %rdx
	sete	%al
	popq	%rbp
	.cfi_def_cfa 7, 8
	ret
	.cfi_endproc
.LFE2464:
	.size	_ZNKSt17_Rb_tree_iteratorISt4pairIKicEEeqERKS3_, .-_ZNKSt17_Rb_tree_iteratorISt4pairIKicEEeqERKS3_
	.section	.text._ZNSt3mapIicSt4lessIiESaISt4pairIKicEEE5eraseERS3_,"axG",@progbits,_ZNSt3mapIicSt4lessIiESaISt4pairIKicEEE5eraseERS3_,comdat
	.align 2
	.weak	_ZNSt3mapIicSt4lessIiESaISt4pairIKicEEE5eraseERS3_
	.type	_ZNSt3mapIicSt4lessIiESaISt4pairIKicEEE5eraseERS3_, @function
_ZNSt3mapIicSt4lessIiESaISt4pairIKicEEE5eraseERS3_:
.LFB2465:
	.cfi_startproc
	pushq	%rbp
	.cfi_def_cfa_offset 16
	.cfi_offset 6, -16
	movq	%rsp, %rbp
	.cfi_def_cfa_register 6
	subq	$16, %rsp
	movq	%rdi, -8(%rbp)
	movq	%rsi, -16(%rbp)
	movq	-8(%rbp), %rax
	movq	-16(%rbp), %rdx
	movq	%rdx, %rsi
	movq	%rax, %rdi
	call	_ZNSt8_Rb_treeIiSt4pairIKicESt10_Select1stIS2_ESt4lessIiESaIS2_EE5eraseERS1_
	leave
	.cfi_def_cfa 7, 8
	ret
	.cfi_endproc
.LFE2465:
	.size	_ZNSt3mapIicSt4lessIiESaISt4pairIKicEEE5eraseERS3_, .-_ZNSt3mapIicSt4lessIiESaISt4pairIKicEEE5eraseERS3_
	.section	.text._ZNSaISt13_Rb_tree_nodeISt4pairIKciEEEC2Ev,"axG",@progbits,_ZNSaISt13_Rb_tree_nodeISt4pairIKciEEEC5Ev,comdat
	.align 2
	.weak	_ZNSaISt13_Rb_tree_nodeISt4pairIKciEEEC2Ev
	.type	_ZNSaISt13_Rb_tree_nodeISt4pairIKciEEEC2Ev, @function
_ZNSaISt13_Rb_tree_nodeISt4pairIKciEEEC2Ev:
.LFB2575:
	.cfi_startproc
	pushq	%rbp
	.cfi_def_cfa_offset 16
	.cfi_offset 6, -16
	movq	%rsp, %rbp
	.cfi_def_cfa_register 6
	subq	$16, %rsp
	movq	%rdi, -8(%rbp)
	movq	-8(%rbp), %rax
	movq	%rax, %rdi
	call	_ZN9__gnu_cxx13new_allocatorISt13_Rb_tree_nodeISt4pairIKciEEEC2Ev
	nop
	leave
	.cfi_def_cfa 7, 8
	ret
	.cfi_endproc
.LFE2575:
	.size	_ZNSaISt13_Rb_tree_nodeISt4pairIKciEEEC2Ev, .-_ZNSaISt13_Rb_tree_nodeISt4pairIKciEEEC2Ev
	.weak	_ZNSaISt13_Rb_tree_nodeISt4pairIKciEEEC1Ev
	.set	_ZNSaISt13_Rb_tree_nodeISt4pairIKciEEEC1Ev,_ZNSaISt13_Rb_tree_nodeISt4pairIKciEEEC2Ev
	.section	.text._ZNSt20_Rb_tree_key_compareISt4lessIcEEC2Ev,"axG",@progbits,_ZNSt20_Rb_tree_key_compareISt4lessIcEEC5Ev,comdat
	.align 2
	.weak	_ZNSt20_Rb_tree_key_compareISt4lessIcEEC2Ev
	.type	_ZNSt20_Rb_tree_key_compareISt4lessIcEEC2Ev, @function
_ZNSt20_Rb_tree_key_compareISt4lessIcEEC2Ev:
.LFB2578:
	.cfi_startproc
	pushq	%rbp
	.cfi_def_cfa_offset 16
	.cfi_offset 6, -16
	movq	%rsp, %rbp
	.cfi_def_cfa_register 6
	movq	%rdi, -8(%rbp)
	nop
	popq	%rbp
	.cfi_def_cfa 7, 8
	ret
	.cfi_endproc
.LFE2578:
	.size	_ZNSt20_Rb_tree_key_compareISt4lessIcEEC2Ev, .-_ZNSt20_Rb_tree_key_compareISt4lessIcEEC2Ev
	.weak	_ZNSt20_Rb_tree_key_compareISt4lessIcEEC1Ev
	.set	_ZNSt20_Rb_tree_key_compareISt4lessIcEEC1Ev,_ZNSt20_Rb_tree_key_compareISt4lessIcEEC2Ev
	.section	.text._ZN9__gnu_cxx13new_allocatorISt13_Rb_tree_nodeISt4pairIKciEEED2Ev,"axG",@progbits,_ZN9__gnu_cxx13new_allocatorISt13_Rb_tree_nodeISt4pairIKciEEED5Ev,comdat
	.align 2
	.weak	_ZN9__gnu_cxx13new_allocatorISt13_Rb_tree_nodeISt4pairIKciEEED2Ev
	.type	_ZN9__gnu_cxx13new_allocatorISt13_Rb_tree_nodeISt4pairIKciEEED2Ev, @function
_ZN9__gnu_cxx13new_allocatorISt13_Rb_tree_nodeISt4pairIKciEEED2Ev:
.LFB2581:
	.cfi_startproc
	pushq	%rbp
	.cfi_def_cfa_offset 16
	.cfi_offset 6, -16
	movq	%rsp, %rbp
	.cfi_def_cfa_register 6
	movq	%rdi, -8(%rbp)
	nop
	popq	%rbp
	.cfi_def_cfa 7, 8
	ret
	.cfi_endproc
.LFE2581:
	.size	_ZN9__gnu_cxx13new_allocatorISt13_Rb_tree_nodeISt4pairIKciEEED2Ev, .-_ZN9__gnu_cxx13new_allocatorISt13_Rb_tree_nodeISt4pairIKciEEED2Ev
	.weak	_ZN9__gnu_cxx13new_allocatorISt13_Rb_tree_nodeISt4pairIKciEEED1Ev
	.set	_ZN9__gnu_cxx13new_allocatorISt13_Rb_tree_nodeISt4pairIKciEEED1Ev,_ZN9__gnu_cxx13new_allocatorISt13_Rb_tree_nodeISt4pairIKciEEED2Ev
	.section	.text._ZNSt8_Rb_treeIcSt4pairIKciESt10_Select1stIS2_ESt4lessIcESaIS2_EE8_M_eraseEPSt13_Rb_tree_nodeIS2_E,"axG",@progbits,_ZNSt8_Rb_treeIcSt4pairIKciESt10_Select1stIS2_ESt4lessIcESaIS2_EE8_M_eraseEPSt13_Rb_tree_nodeIS2_E,comdat
	.align 2
	.weak	_ZNSt8_Rb_treeIcSt4pairIKciESt10_Select1stIS2_ESt4lessIcESaIS2_EE8_M_eraseEPSt13_Rb_tree_nodeIS2_E
	.type	_ZNSt8_Rb_treeIcSt4pairIKciESt10_Select1stIS2_ESt4lessIcESaIS2_EE8_M_eraseEPSt13_Rb_tree_nodeIS2_E, @function
_ZNSt8_Rb_treeIcSt4pairIKciESt10_Select1stIS2_ESt4lessIcESaIS2_EE8_M_eraseEPSt13_Rb_tree_nodeIS2_E:
.LFB2583:
	.cfi_startproc
	pushq	%rbp
	.cfi_def_cfa_offset 16
	.cfi_offset 6, -16
	movq	%rsp, %rbp
	.cfi_def_cfa_register 6
	subq	$32, %rsp
	movq	%rdi, -24(%rbp)
	movq	%rsi, -32(%rbp)
.L104:
	cmpq	$0, -32(%rbp)
	je	.L105
	movq	-32(%rbp), %rax
	movq	%rax, %rdi
	call	_ZNSt8_Rb_treeIcSt4pairIKciESt10_Select1stIS2_ESt4lessIcESaIS2_EE8_S_rightEPSt18_Rb_tree_node_base
	movq	%rax, %rdx
	movq	-24(%rbp), %rax
	movq	%rdx, %rsi
	movq	%rax, %rdi
	call	_ZNSt8_Rb_treeIcSt4pairIKciESt10_Select1stIS2_ESt4lessIcESaIS2_EE8_M_eraseEPSt13_Rb_tree_nodeIS2_E
	movq	-32(%rbp), %rax
	movq	%rax, %rdi
	call	_ZNSt8_Rb_treeIcSt4pairIKciESt10_Select1stIS2_ESt4lessIcESaIS2_EE7_S_leftEPSt18_Rb_tree_node_base
	movq	%rax, -8(%rbp)
	movq	-32(%rbp), %rdx
	movq	-24(%rbp), %rax
	movq	%rdx, %rsi
	movq	%rax, %rdi
	call	_ZNSt8_Rb_treeIcSt4pairIKciESt10_Select1stIS2_ESt4lessIcESaIS2_EE12_M_drop_nodeEPSt13_Rb_tree_nodeIS2_E
	movq	-8(%rbp), %rax
	movq	%rax, -32(%rbp)
	jmp	.L104
.L105:
	nop
	leave
	.cfi_def_cfa 7, 8
	ret
	.cfi_endproc
.LFE2583:
	.size	_ZNSt8_Rb_treeIcSt4pairIKciESt10_Select1stIS2_ESt4lessIcESaIS2_EE8_M_eraseEPSt13_Rb_tree_nodeIS2_E, .-_ZNSt8_Rb_treeIcSt4pairIKciESt10_Select1stIS2_ESt4lessIcESaIS2_EE8_M_eraseEPSt13_Rb_tree_nodeIS2_E
	.section	.text._ZNSt8_Rb_treeIcSt4pairIKciESt10_Select1stIS2_ESt4lessIcESaIS2_EE8_M_beginEv,"axG",@progbits,_ZNSt8_Rb_treeIcSt4pairIKciESt10_Select1stIS2_ESt4lessIcESaIS2_EE8_M_beginEv,comdat
	.align 2
	.weak	_ZNSt8_Rb_treeIcSt4pairIKciESt10_Select1stIS2_ESt4lessIcESaIS2_EE8_M_beginEv
	.type	_ZNSt8_Rb_treeIcSt4pairIKciESt10_Select1stIS2_ESt4lessIcESaIS2_EE8_M_beginEv, @function
_ZNSt8_Rb_treeIcSt4pairIKciESt10_Select1stIS2_ESt4lessIcESaIS2_EE8_M_beginEv:
.LFB2584:
	.cfi_startproc
	pushq	%rbp
	.cfi_def_cfa_offset 16
	.cfi_offset 6, -16
	movq	%rsp, %rbp
	.cfi_def_cfa_register 6
	movq	%rdi, -8(%rbp)
	movq	-8(%rbp), %rax
	movq	16(%rax), %rax
	popq	%rbp
	.cfi_def_cfa 7, 8
	ret
	.cfi_endproc
.LFE2584:
	.size	_ZNSt8_Rb_treeIcSt4pairIKciESt10_Select1stIS2_ESt4lessIcESaIS2_EE8_M_beginEv, .-_ZNSt8_Rb_treeIcSt4pairIKciESt10_Select1stIS2_ESt4lessIcESaIS2_EE8_M_beginEv
	.section	.text._ZNSt3mapIciSt4lessIcESaISt4pairIKciEEE11lower_boundERS3_,"axG",@progbits,_ZNSt3mapIciSt4lessIcESaISt4pairIKciEEE11lower_boundERS3_,comdat
	.align 2
	.weak	_ZNSt3mapIciSt4lessIcESaISt4pairIKciEEE11lower_boundERS3_
	.type	_ZNSt3mapIciSt4lessIcESaISt4pairIKciEEE11lower_boundERS3_, @function
_ZNSt3mapIciSt4lessIcESaISt4pairIKciEEE11lower_boundERS3_:
.LFB2585:
	.cfi_startproc
	pushq	%rbp
	.cfi_def_cfa_offset 16
	.cfi_offset 6, -16
	movq	%rsp, %rbp
	.cfi_def_cfa_register 6
	subq	$16, %rsp
	movq	%rdi, -8(%rbp)
	movq	%rsi, -16(%rbp)
	movq	-8(%rbp), %rax
	movq	-16(%rbp), %rdx
	movq	%rdx, %rsi
	movq	%rax, %rdi
	call	_ZNSt8_Rb_treeIcSt4pairIKciESt10_Select1stIS2_ESt4lessIcESaIS2_EE11lower_boundERS1_
	leave
	.cfi_def_cfa 7, 8
	ret
	.cfi_endproc
.LFE2585:
	.size	_ZNSt3mapIciSt4lessIcESaISt4pairIKciEEE11lower_boundERS3_, .-_ZNSt3mapIciSt4lessIcESaISt4pairIKciEEE11lower_boundERS3_
	.section	.text._ZNKSt17_Rb_tree_iteratorISt4pairIKciEEeqERKS3_,"axG",@progbits,_ZNKSt17_Rb_tree_iteratorISt4pairIKciEEeqERKS3_,comdat
	.align 2
	.weak	_ZNKSt17_Rb_tree_iteratorISt4pairIKciEEeqERKS3_
	.type	_ZNKSt17_Rb_tree_iteratorISt4pairIKciEEeqERKS3_, @function
_ZNKSt17_Rb_tree_iteratorISt4pairIKciEEeqERKS3_:
.LFB2586:
	.cfi_startproc
	pushq	%rbp
	.cfi_def_cfa_offset 16
	.cfi_offset 6, -16
	movq	%rsp, %rbp
	.cfi_def_cfa_register 6
	movq	%rdi, -8(%rbp)
	movq	%rsi, -16(%rbp)
	movq	-8(%rbp), %rax
	movq	(%rax), %rdx
	movq	-16(%rbp), %rax
	movq	(%rax), %rax
	cmpq	%rax, %rdx
	sete	%al
	popq	%rbp
	.cfi_def_cfa 7, 8
	ret
	.cfi_endproc
.LFE2586:
	.size	_ZNKSt17_Rb_tree_iteratorISt4pairIKciEEeqERKS3_, .-_ZNKSt17_Rb_tree_iteratorISt4pairIKciEEeqERKS3_
	.section	.text._ZNKSt3mapIciSt4lessIcESaISt4pairIKciEEE8key_compEv,"axG",@progbits,_ZNKSt3mapIciSt4lessIcESaISt4pairIKciEEE8key_compEv,comdat
	.align 2
	.weak	_ZNKSt3mapIciSt4lessIcESaISt4pairIKciEEE8key_compEv
	.type	_ZNKSt3mapIciSt4lessIcESaISt4pairIKciEEE8key_compEv, @function
_ZNKSt3mapIciSt4lessIcESaISt4pairIKciEEE8key_compEv:
.LFB2587:
	.cfi_startproc
	pushq	%rbp
	.cfi_def_cfa_offset 16
	.cfi_offset 6, -16
	movq	%rsp, %rbp
	.cfi_def_cfa_register 6
	pushq	%rbx
	subq	$24, %rsp
	.cfi_offset 3, -24
	movq	%rdi, -24(%rbp)
	movq	-24(%rbp), %rax
	movq	%rax, %rdi
	call	_ZNKSt8_Rb_treeIcSt4pairIKciESt10_Select1stIS2_ESt4lessIcESaIS2_EE8key_compEv
	movl	%ebx, %eax
	addq	$24, %rsp
	popq	%rbx
	popq	%rbp
	.cfi_def_cfa 7, 8
	ret
	.cfi_endproc
.LFE2587:
	.size	_ZNKSt3mapIciSt4lessIcESaISt4pairIKciEEE8key_compEv, .-_ZNKSt3mapIciSt4lessIcESaISt4pairIKciEEE8key_compEv
	.section	.text._ZNKSt17_Rb_tree_iteratorISt4pairIKciEEdeEv,"axG",@progbits,_ZNKSt17_Rb_tree_iteratorISt4pairIKciEEdeEv,comdat
	.align 2
	.weak	_ZNKSt17_Rb_tree_iteratorISt4pairIKciEEdeEv
	.type	_ZNKSt17_Rb_tree_iteratorISt4pairIKciEEdeEv, @function
_ZNKSt17_Rb_tree_iteratorISt4pairIKciEEdeEv:
.LFB2588:
	.cfi_startproc
	pushq	%rbp
	.cfi_def_cfa_offset 16
	.cfi_offset 6, -16
	movq	%rsp, %rbp
	.cfi_def_cfa_register 6
	subq	$16, %rsp
	movq	%rdi, -8(%rbp)
	movq	-8(%rbp), %rax
	movq	(%rax), %rax
	movq	%rax, %rdi
	call	_ZNSt13_Rb_tree_nodeISt4pairIKciEE9_M_valptrEv
	leave
	.cfi_def_cfa 7, 8
	ret
	.cfi_endproc
.LFE2588:
	.size	_ZNKSt17_Rb_tree_iteratorISt4pairIKciEEdeEv, .-_ZNKSt17_Rb_tree_iteratorISt4pairIKciEEdeEv
	.section	.text._ZNKSt4lessIcEclERKcS2_,"axG",@progbits,_ZNKSt4lessIcEclERKcS2_,comdat
	.align 2
	.weak	_ZNKSt4lessIcEclERKcS2_
	.type	_ZNKSt4lessIcEclERKcS2_, @function
_ZNKSt4lessIcEclERKcS2_:
.LFB2589:
	.cfi_startproc
	pushq	%rbp
	.cfi_def_cfa_offset 16
	.cfi_offset 6, -16
	movq	%rsp, %rbp
	.cfi_def_cfa_register 6
	movq	%rdi, -8(%rbp)
	movq	%rsi, -16(%rbp)
	movq	%rdx, -24(%rbp)
	movq	-16(%rbp), %rax
	movzbl	(%rax), %edx
	movq	-24(%rbp), %rax
	movzbl	(%rax), %eax
	cmpb	%al, %dl
	setl	%al
	popq	%rbp
	.cfi_def_cfa 7, 8
	ret
	.cfi_endproc
.LFE2589:
	.size	_ZNKSt4lessIcEclERKcS2_, .-_ZNKSt4lessIcEclERKcS2_
	.section	.text._ZNSt11_Tuple_implILm0EJOcEE7_M_headERS1_,"axG",@progbits,_ZNSt11_Tuple_implILm0EJOcEE7_M_headERS1_,comdat
	.weak	_ZNSt11_Tuple_implILm0EJOcEE7_M_headERS1_
	.type	_ZNSt11_Tuple_implILm0EJOcEE7_M_headERS1_, @function
_ZNSt11_Tuple_implILm0EJOcEE7_M_headERS1_:
.LFB2591:
	.cfi_startproc
	pushq	%rbp
	.cfi_def_cfa_offset 16
	.cfi_offset 6, -16
	movq	%rsp, %rbp
	.cfi_def_cfa_register 6
	subq	$16, %rsp
	movq	%rdi, -8(%rbp)
	movq	-8(%rbp), %rax
	movq	%rax, %rdi
	call	_ZNSt10_Head_baseILm0EOcLb0EE7_M_headERS1_
	leave
	.cfi_def_cfa 7, 8
	ret
	.cfi_endproc
.LFE2591:
	.size	_ZNSt11_Tuple_implILm0EJOcEE7_M_headERS1_, .-_ZNSt11_Tuple_implILm0EJOcEE7_M_headERS1_
	.section	.text._ZNSt10_Head_baseILm0EOcLb0EE7_M_headERS1_,"axG",@progbits,_ZNSt10_Head_baseILm0EOcLb0EE7_M_headERS1_,comdat
	.weak	_ZNSt10_Head_baseILm0EOcLb0EE7_M_headERS1_
	.type	_ZNSt10_Head_baseILm0EOcLb0EE7_M_headERS1_, @function
_ZNSt10_Head_baseILm0EOcLb0EE7_M_headERS1_:
.LFB2592:
	.cfi_startproc
	pushq	%rbp
	.cfi_def_cfa_offset 16
	.cfi_offset 6, -16
	movq	%rsp, %rbp
	.cfi_def_cfa_register 6
	movq	%rdi, -8(%rbp)
	movq	-8(%rbp), %rax
	movq	(%rax), %rax
	popq	%rbp
	.cfi_def_cfa 7, 8
	ret
	.cfi_endproc
.LFE2592:
	.size	_ZNSt10_Head_baseILm0EOcLb0EE7_M_headERS1_, .-_ZNSt10_Head_baseILm0EOcLb0EE7_M_headERS1_
	.section	.text._ZSt7forwardIOcEOT_RNSt16remove_referenceIS1_E4typeE,"axG",@progbits,_ZSt7forwardIOcEOT_RNSt16remove_referenceIS1_E4typeE,comdat
	.weak	_ZSt7forwardIOcEOT_RNSt16remove_referenceIS1_E4typeE
	.type	_ZSt7forwardIOcEOT_RNSt16remove_referenceIS1_E4typeE, @function
_ZSt7forwardIOcEOT_RNSt16remove_referenceIS1_E4typeE:
.LFB2593:
	.cfi_startproc
	pushq	%rbp
	.cfi_def_cfa_offset 16
	.cfi_offset 6, -16
	movq	%rsp, %rbp
	.cfi_def_cfa_register 6
	movq	%rdi, -8(%rbp)
	movq	-8(%rbp), %rax
	popq	%rbp
	.cfi_def_cfa 7, 8
	ret
	.cfi_endproc
.LFE2593:
	.size	_ZSt7forwardIOcEOT_RNSt16remove_referenceIS1_E4typeE, .-_ZSt7forwardIOcEOT_RNSt16remove_referenceIS1_E4typeE
	.section	.text._ZNSt11_Tuple_implILm0EJOcEEC2EOS1_,"axG",@progbits,_ZNSt11_Tuple_implILm0EJOcEEC5EOS1_,comdat
	.align 2
	.weak	_ZNSt11_Tuple_implILm0EJOcEEC2EOS1_
	.type	_ZNSt11_Tuple_implILm0EJOcEEC2EOS1_, @function
_ZNSt11_Tuple_implILm0EJOcEEC2EOS1_:
.LFB2594:
	.cfi_startproc
	pushq	%rbp
	.cfi_def_cfa_offset 16
	.cfi_offset 6, -16
	movq	%rsp, %rbp
	.cfi_def_cfa_register 6
	pushq	%rbx
	subq	$24, %rsp
	.cfi_offset 3, -24
	movq	%rdi, -24(%rbp)
	movq	%rsi, -32(%rbp)
	movq	-24(%rbp), %rbx
	movq	-32(%rbp), %rax
	movq	%rax, %rdi
	call	_ZNSt11_Tuple_implILm0EJOcEE7_M_headERS1_
	movq	%rax, %rdi
	call	_ZSt7forwardIOcEOT_RNSt16remove_referenceIS1_E4typeE
	movq	%rax, %rsi
	movq	%rbx, %rdi
	call	_ZNSt10_Head_baseILm0EOcLb0EEC2IcEEOT_
	nop
	addq	$24, %rsp
	popq	%rbx
	popq	%rbp
	.cfi_def_cfa 7, 8
	ret
	.cfi_endproc
.LFE2594:
	.size	_ZNSt11_Tuple_implILm0EJOcEEC2EOS1_, .-_ZNSt11_Tuple_implILm0EJOcEEC2EOS1_
	.weak	_ZNSt11_Tuple_implILm0EJOcEEC1EOS1_
	.set	_ZNSt11_Tuple_implILm0EJOcEEC1EOS1_,_ZNSt11_Tuple_implILm0EJOcEEC2EOS1_
	.section	.text._ZSt7forwardIRKSt21piecewise_construct_tEOT_RNSt16remove_referenceIS3_E4typeE,"axG",@progbits,_ZSt7forwardIRKSt21piecewise_construct_tEOT_RNSt16remove_referenceIS3_E4typeE,comdat
	.weak	_ZSt7forwardIRKSt21piecewise_construct_tEOT_RNSt16remove_referenceIS3_E4typeE
	.type	_ZSt7forwardIRKSt21piecewise_construct_tEOT_RNSt16remove_referenceIS3_E4typeE, @function
_ZSt7forwardIRKSt21piecewise_construct_tEOT_RNSt16remove_referenceIS3_E4typeE:
.LFB2597:
	.cfi_startproc
	pushq	%rbp
	.cfi_def_cfa_offset 16
	.cfi_offset 6, -16
	movq	%rsp, %rbp
	.cfi_def_cfa_register 6
	movq	%rdi, -8(%rbp)
	movq	-8(%rbp), %rax
	popq	%rbp
	.cfi_def_cfa 7, 8
	ret
	.cfi_endproc
.LFE2597:
	.size	_ZSt7forwardIRKSt21piecewise_construct_tEOT_RNSt16remove_referenceIS3_E4typeE, .-_ZSt7forwardIRKSt21piecewise_construct_tEOT_RNSt16remove_referenceIS3_E4typeE
	.section	.text._ZSt7forwardISt5tupleIJOcEEEOT_RNSt16remove_referenceIS3_E4typeE,"axG",@progbits,_ZSt7forwardISt5tupleIJOcEEEOT_RNSt16remove_referenceIS3_E4typeE,comdat
	.weak	_ZSt7forwardISt5tupleIJOcEEEOT_RNSt16remove_referenceIS3_E4typeE
	.type	_ZSt7forwardISt5tupleIJOcEEEOT_RNSt16remove_referenceIS3_E4typeE, @function
_ZSt7forwardISt5tupleIJOcEEEOT_RNSt16remove_referenceIS3_E4typeE:
.LFB2598:
	.cfi_startproc
	pushq	%rbp
	.cfi_def_cfa_offset 16
	.cfi_offset 6, -16
	movq	%rsp, %rbp
	.cfi_def_cfa_register 6
	movq	%rdi, -8(%rbp)
	movq	-8(%rbp), %rax
	popq	%rbp
	.cfi_def_cfa 7, 8
	ret
	.cfi_endproc
.LFE2598:
	.size	_ZSt7forwardISt5tupleIJOcEEEOT_RNSt16remove_referenceIS3_E4typeE, .-_ZSt7forwardISt5tupleIJOcEEEOT_RNSt16remove_referenceIS3_E4typeE
	.section	.text._ZSt7forwardISt5tupleIJEEEOT_RNSt16remove_referenceIS2_E4typeE,"axG",@progbits,_ZSt7forwardISt5tupleIJEEEOT_RNSt16remove_referenceIS2_E4typeE,comdat
	.weak	_ZSt7forwardISt5tupleIJEEEOT_RNSt16remove_referenceIS2_E4typeE
	.type	_ZSt7forwardISt5tupleIJEEEOT_RNSt16remove_referenceIS2_E4typeE, @function
_ZSt7forwardISt5tupleIJEEEOT_RNSt16remove_referenceIS2_E4typeE:
.LFB2599:
	.cfi_startproc
	pushq	%rbp
	.cfi_def_cfa_offset 16
	.cfi_offset 6, -16
	movq	%rsp, %rbp
	.cfi_def_cfa_register 6
	movq	%rdi, -8(%rbp)
	movq	-8(%rbp), %rax
	popq	%rbp
	.cfi_def_cfa 7, 8
	ret
	.cfi_endproc
.LFE2599:
	.size	_ZSt7forwardISt5tupleIJEEEOT_RNSt16remove_referenceIS2_E4typeE, .-_ZSt7forwardISt5tupleIJEEEOT_RNSt16remove_referenceIS2_E4typeE
	.section	.text._ZNSt8_Rb_treeIcSt4pairIKciESt10_Select1stIS2_ESt4lessIcESaIS2_EE22_M_emplace_hint_uniqueIJRKSt21piecewise_construct_tSt5tupleIJOcEESD_IJEEEEESt17_Rb_tree_iteratorIS2_ESt23_Rb_tree_const_iteratorIS2_EDpOT_,"axG",@progbits,_ZNSt8_Rb_treeIcSt4pairIKciESt10_Select1stIS2_ESt4lessIcESaIS2_EE22_M_emplace_hint_uniqueIJRKSt21piecewise_construct_tSt5tupleIJOcEESD_IJEEEEESt17_Rb_tree_iteratorIS2_ESt23_Rb_tree_const_iteratorIS2_EDpOT_,comdat
	.align 2
	.weak	_ZNSt8_Rb_treeIcSt4pairIKciESt10_Select1stIS2_ESt4lessIcESaIS2_EE22_M_emplace_hint_uniqueIJRKSt21piecewise_construct_tSt5tupleIJOcEESD_IJEEEEESt17_Rb_tree_iteratorIS2_ESt23_Rb_tree_const_iteratorIS2_EDpOT_
	.type	_ZNSt8_Rb_treeIcSt4pairIKciESt10_Select1stIS2_ESt4lessIcESaIS2_EE22_M_emplace_hint_uniqueIJRKSt21piecewise_construct_tSt5tupleIJOcEESD_IJEEEEESt17_Rb_tree_iteratorIS2_ESt23_Rb_tree_const_iteratorIS2_EDpOT_, @function
_ZNSt8_Rb_treeIcSt4pairIKciESt10_Select1stIS2_ESt4lessIcESaIS2_EE22_M_emplace_hint_uniqueIJRKSt21piecewise_construct_tSt5tupleIJOcEESD_IJEEEEESt17_Rb_tree_iteratorIS2_ESt23_Rb_tree_const_iteratorIS2_EDpOT_:
.LFB2596:
	.cfi_startproc
	.cfi_personality 0x9b,DW.ref.__gxx_personality_v0
	.cfi_lsda 0x1b,.LLSDA2596
	pushq	%rbp
	.cfi_def_cfa_offset 16
	.cfi_offset 6, -16
	movq	%rsp, %rbp
	.cfi_def_cfa_register 6
	pushq	%r12
	pushq	%rbx
	subq	$96, %rsp
	.cfi_offset 12, -24
	.cfi_offset 3, -32
	movq	%rdi, -72(%rbp)
	movq	%rsi, -80(%rbp)
	movq	%rdx, -88(%rbp)
	movq	%rcx, -96(%rbp)
	movq	%r8, -104(%rbp)
	movq	%fs:40, %rax
	movq	%rax, -24(%rbp)
	xorl	%eax, %eax
	movq	-104(%rbp), %rax
	movq	%rax, %rdi
	call	_ZSt7forwardISt5tupleIJEEEOT_RNSt16remove_referenceIS2_E4typeE
	movq	%rax, %r12
	movq	-96(%rbp), %rax
	movq	%rax, %rdi
	call	_ZSt7forwardISt5tupleIJOcEEEOT_RNSt16remove_referenceIS3_E4typeE
	movq	%rax, %rbx
	movq	-88(%rbp), %rax
	movq	%rax, %rdi
	call	_ZSt7forwardIRKSt21piecewise_construct_tEOT_RNSt16remove_referenceIS3_E4typeE
	movq	%rax, %rsi
	movq	-72(%rbp), %rax
	movq	%r12, %rcx
	movq	%rbx, %rdx
	movq	%rax, %rdi
.LEHB3:
	call	_ZNSt8_Rb_treeIcSt4pairIKciESt10_Select1stIS2_ESt4lessIcESaIS2_EE14_M_create_nodeIJRKSt21piecewise_construct_tSt5tupleIJOcEESD_IJEEEEEPSt13_Rb_tree_nodeIS2_EDpOT_
.LEHE3:
	movq	%rax, -56(%rbp)
	movq	-56(%rbp), %rax
	movq	%rax, %rdi
.LEHB4:
	call	_ZNSt8_Rb_treeIcSt4pairIKciESt10_Select1stIS2_ESt4lessIcESaIS2_EE6_S_keyEPKSt13_Rb_tree_nodeIS2_E
	movq	%rax, %rdx
	movq	-80(%rbp), %rcx
	movq	-72(%rbp), %rax
	movq	%rcx, %rsi
	movq	%rax, %rdi
	call	_ZNSt8_Rb_treeIcSt4pairIKciESt10_Select1stIS2_ESt4lessIcESaIS2_EE29_M_get_insert_hint_unique_posESt23_Rb_tree_const_iteratorIS2_ERS1_
	movq	%rax, -48(%rbp)
	movq	%rdx, -40(%rbp)
	movq	-40(%rbp), %rax
	testq	%rax, %rax
	je	.L132
	movq	-40(%rbp), %rdx
	movq	-48(%rbp), %rsi
	movq	-56(%rbp), %rcx
	movq	-72(%rbp), %rax
	movq	%rax, %rdi
	call	_ZNSt8_Rb_treeIcSt4pairIKciESt10_Select1stIS2_ESt4lessIcESaIS2_EE14_M_insert_nodeEPSt18_Rb_tree_node_baseSA_PSt13_Rb_tree_nodeIS2_E
.LEHE4:
	jmp	.L134
.L132:
	movq	-56(%rbp), %rdx
	movq	-72(%rbp), %rax
	movq	%rdx, %rsi
	movq	%rax, %rdi
	call	_ZNSt8_Rb_treeIcSt4pairIKciESt10_Select1stIS2_ESt4lessIcESaIS2_EE12_M_drop_nodeEPSt13_Rb_tree_nodeIS2_E
	movq	-48(%rbp), %rdx
	leaq	-64(%rbp), %rax
	movq	%rdx, %rsi
	movq	%rax, %rdi
	call	_ZNSt17_Rb_tree_iteratorISt4pairIKciEEC1EPSt18_Rb_tree_node_base
	movq	-64(%rbp), %rax
.L134:
	movq	-24(%rbp), %rbx
	xorq	%fs:40, %rbx
	je	.L137
	jmp	.L140
.L138:
	movq	%rax, %rdi
	call	__cxa_begin_catch@PLT
	movq	-56(%rbp), %rdx
	movq	-72(%rbp), %rax
	movq	%rdx, %rsi
	movq	%rax, %rdi
	call	_ZNSt8_Rb_treeIcSt4pairIKciESt10_Select1stIS2_ESt4lessIcESaIS2_EE12_M_drop_nodeEPSt13_Rb_tree_nodeIS2_E
.LEHB5:
	call	__cxa_rethrow@PLT
.LEHE5:
.L139:
	movq	%rax, %rbx
	call	__cxa_end_catch@PLT
	movq	%rbx, %rax
	movq	%rax, %rdi
.LEHB6:
	call	_Unwind_Resume@PLT
.LEHE6:
.L140:
	call	__stack_chk_fail@PLT
.L137:
	addq	$96, %rsp
	popq	%rbx
	popq	%r12
	popq	%rbp
	.cfi_def_cfa 7, 8
	ret
	.cfi_endproc
.LFE2596:
	.section	.gcc_except_table
	.align 4
.LLSDA2596:
	.byte	0xff
	.byte	0x9b
	.uleb128 .LLSDATT2596-.LLSDATTD2596
.LLSDATTD2596:
	.byte	0x1
	.uleb128 .LLSDACSE2596-.LLSDACSB2596
.LLSDACSB2596:
	.uleb128 .LEHB3-.LFB2596
	.uleb128 .LEHE3-.LEHB3
	.uleb128 0
	.uleb128 0
	.uleb128 .LEHB4-.LFB2596
	.uleb128 .LEHE4-.LEHB4
	.uleb128 .L138-.LFB2596
	.uleb128 0x1
	.uleb128 .LEHB5-.LFB2596
	.uleb128 .LEHE5-.LEHB5
	.uleb128 .L139-.LFB2596
	.uleb128 0
	.uleb128 .LEHB6-.LFB2596
	.uleb128 .LEHE6-.LEHB6
	.uleb128 0
	.uleb128 0
.LLSDACSE2596:
	.byte	0x1
	.byte	0
	.align 4
	.long	0

.LLSDATT2596:
	.section	.text._ZNSt8_Rb_treeIcSt4pairIKciESt10_Select1stIS2_ESt4lessIcESaIS2_EE22_M_emplace_hint_uniqueIJRKSt21piecewise_construct_tSt5tupleIJOcEESD_IJEEEEESt17_Rb_tree_iteratorIS2_ESt23_Rb_tree_const_iteratorIS2_EDpOT_,"axG",@progbits,_ZNSt8_Rb_treeIcSt4pairIKciESt10_Select1stIS2_ESt4lessIcESaIS2_EE22_M_emplace_hint_uniqueIJRKSt21piecewise_construct_tSt5tupleIJOcEESD_IJEEEEESt17_Rb_tree_iteratorIS2_ESt23_Rb_tree_const_iteratorIS2_EDpOT_,comdat
	.size	_ZNSt8_Rb_treeIcSt4pairIKciESt10_Select1stIS2_ESt4lessIcESaIS2_EE22_M_emplace_hint_uniqueIJRKSt21piecewise_construct_tSt5tupleIJOcEESD_IJEEEEESt17_Rb_tree_iteratorIS2_ESt23_Rb_tree_const_iteratorIS2_EDpOT_, .-_ZNSt8_Rb_treeIcSt4pairIKciESt10_Select1stIS2_ESt4lessIcESaIS2_EE22_M_emplace_hint_uniqueIJRKSt21piecewise_construct_tSt5tupleIJOcEESD_IJEEEEESt17_Rb_tree_iteratorIS2_ESt23_Rb_tree_const_iteratorIS2_EDpOT_
	.section	.text._ZNSt8_Rb_treeIcSt4pairIKciESt10_Select1stIS2_ESt4lessIcESaIS2_EE4findERS1_,"axG",@progbits,_ZNSt8_Rb_treeIcSt4pairIKciESt10_Select1stIS2_ESt4lessIcESaIS2_EE4findERS1_,comdat
	.align 2
	.weak	_ZNSt8_Rb_treeIcSt4pairIKciESt10_Select1stIS2_ESt4lessIcESaIS2_EE4findERS1_
	.type	_ZNSt8_Rb_treeIcSt4pairIKciESt10_Select1stIS2_ESt4lessIcESaIS2_EE4findERS1_, @function
_ZNSt8_Rb_treeIcSt4pairIKciESt10_Select1stIS2_ESt4lessIcESaIS2_EE4findERS1_:
.LFB2604:
	.cfi_startproc
	pushq	%rbp
	.cfi_def_cfa_offset 16
	.cfi_offset 6, -16
	movq	%rsp, %rbp
	.cfi_def_cfa_register 6
	pushq	%rbx
	subq	$56, %rsp
	.cfi_offset 3, -24
	movq	%rdi, -56(%rbp)
	movq	%rsi, -64(%rbp)
	movq	%fs:40, %rax
	movq	%rax, -24(%rbp)
	xorl	%eax, %eax
	movq	-56(%rbp), %rax
	movq	%rax, %rdi
	call	_ZNSt8_Rb_treeIcSt4pairIKciESt10_Select1stIS2_ESt4lessIcESaIS2_EE6_M_endEv
	movq	%rax, %rbx
	movq	-56(%rbp), %rax
	movq	%rax, %rdi
	call	_ZNSt8_Rb_treeIcSt4pairIKciESt10_Select1stIS2_ESt4lessIcESaIS2_EE8_M_beginEv
	movq	%rax, %rsi
	movq	-64(%rbp), %rdx
	movq	-56(%rbp), %rax
	movq	%rdx, %rcx
	movq	%rbx, %rdx
	movq	%rax, %rdi
	call	_ZNSt8_Rb_treeIcSt4pairIKciESt10_Select1stIS2_ESt4lessIcESaIS2_EE14_M_lower_boundEPSt13_Rb_tree_nodeIS2_EPSt18_Rb_tree_node_baseRS1_
	movq	%rax, -40(%rbp)
	movq	-56(%rbp), %rax
	movq	%rax, %rdi
	call	_ZNSt8_Rb_treeIcSt4pairIKciESt10_Select1stIS2_ESt4lessIcESaIS2_EE3endEv
	movq	%rax, -32(%rbp)
	leaq	-32(%rbp), %rdx
	leaq	-40(%rbp), %rax
	movq	%rdx, %rsi
	movq	%rax, %rdi
	call	_ZNKSt17_Rb_tree_iteratorISt4pairIKciEEeqERKS3_
	testb	%al, %al
	jne	.L142
	movq	-56(%rbp), %rbx
	movq	-40(%rbp), %rax
	movq	%rax, %rdi
	call	_ZNSt8_Rb_treeIcSt4pairIKciESt10_Select1stIS2_ESt4lessIcESaIS2_EE6_S_keyEPKSt18_Rb_tree_node_base
	movq	%rax, %rdx
	movq	-64(%rbp), %rax
	movq	%rax, %rsi
	movq	%rbx, %rdi
	call	_ZNKSt4lessIcEclERKcS2_
	testb	%al, %al
	je	.L143
.L142:
	movq	-56(%rbp), %rax
	movq	%rax, %rdi
	call	_ZNSt8_Rb_treeIcSt4pairIKciESt10_Select1stIS2_ESt4lessIcESaIS2_EE3endEv
	jmp	.L145
.L143:
	movq	-40(%rbp), %rax
.L145:
	movq	-24(%rbp), %rcx
	xorq	%fs:40, %rcx
	je	.L146
	call	__stack_chk_fail@PLT
.L146:
	addq	$56, %rsp
	popq	%rbx
	popq	%rbp
	.cfi_def_cfa 7, 8
	ret
	.cfi_endproc
.LFE2604:
	.size	_ZNSt8_Rb_treeIcSt4pairIKciESt10_Select1stIS2_ESt4lessIcESaIS2_EE4findERS1_, .-_ZNSt8_Rb_treeIcSt4pairIKciESt10_Select1stIS2_ESt4lessIcESaIS2_EE4findERS1_
	.section	.text._ZNSt8_Rb_treeIcSt4pairIKciESt10_Select1stIS2_ESt4lessIcESaIS2_EE5eraseB5cxx11ESt17_Rb_tree_iteratorIS2_E,"axG",@progbits,_ZNSt8_Rb_treeIcSt4pairIKciESt10_Select1stIS2_ESt4lessIcESaIS2_EE5eraseB5cxx11ESt17_Rb_tree_iteratorIS2_E,comdat
	.align 2
	.weak	_ZNSt8_Rb_treeIcSt4pairIKciESt10_Select1stIS2_ESt4lessIcESaIS2_EE5eraseB5cxx11ESt17_Rb_tree_iteratorIS2_E
	.type	_ZNSt8_Rb_treeIcSt4pairIKciESt10_Select1stIS2_ESt4lessIcESaIS2_EE5eraseB5cxx11ESt17_Rb_tree_iteratorIS2_E, @function
_ZNSt8_Rb_treeIcSt4pairIKciESt10_Select1stIS2_ESt4lessIcESaIS2_EE5eraseB5cxx11ESt17_Rb_tree_iteratorIS2_E:
.LFB2605:
	.cfi_startproc
	pushq	%rbp
	.cfi_def_cfa_offset 16
	.cfi_offset 6, -16
	movq	%rsp, %rbp
	.cfi_def_cfa_register 6
	subq	$48, %rsp
	movq	%rdi, -40(%rbp)
	movq	%rsi, -48(%rbp)
	movq	%fs:40, %rax
	movq	%rax, -8(%rbp)
	xorl	%eax, %eax
	movq	-48(%rbp), %rax
	movq	%rax, -24(%rbp)
	leaq	-24(%rbp), %rax
	movq	%rax, %rdi
	call	_ZNSt17_Rb_tree_iteratorISt4pairIKciEEppEv
	leaq	-48(%rbp), %rdx
	leaq	-16(%rbp), %rax
	movq	%rdx, %rsi
	movq	%rax, %rdi
	call	_ZNSt23_Rb_tree_const_iteratorISt4pairIKciEEC1ERKSt17_Rb_tree_iteratorIS2_E
	movq	-16(%rbp), %rdx
	movq	-40(%rbp), %rax
	movq	%rdx, %rsi
	movq	%rax, %rdi
	call	_ZNSt8_Rb_treeIcSt4pairIKciESt10_Select1stIS2_ESt4lessIcESaIS2_EE12_M_erase_auxESt23_Rb_tree_const_iteratorIS2_E
	movq	-24(%rbp), %rax
	movq	-8(%rbp), %rcx
	xorq	%fs:40, %rcx
	je	.L149
	call	__stack_chk_fail@PLT
.L149:
	leave
	.cfi_def_cfa 7, 8
	ret
	.cfi_endproc
.LFE2605:
	.size	_ZNSt8_Rb_treeIcSt4pairIKciESt10_Select1stIS2_ESt4lessIcESaIS2_EE5eraseB5cxx11ESt17_Rb_tree_iteratorIS2_E, .-_ZNSt8_Rb_treeIcSt4pairIKciESt10_Select1stIS2_ESt4lessIcESaIS2_EE5eraseB5cxx11ESt17_Rb_tree_iteratorIS2_E
	.section	.text._ZNSt8_Rb_treeIcSt4pairIKciESt10_Select1stIS2_ESt4lessIcESaIS2_EE5eraseERS1_,"axG",@progbits,_ZNSt8_Rb_treeIcSt4pairIKciESt10_Select1stIS2_ESt4lessIcESaIS2_EE5eraseERS1_,comdat
	.align 2
	.weak	_ZNSt8_Rb_treeIcSt4pairIKciESt10_Select1stIS2_ESt4lessIcESaIS2_EE5eraseERS1_
	.type	_ZNSt8_Rb_treeIcSt4pairIKciESt10_Select1stIS2_ESt4lessIcESaIS2_EE5eraseERS1_, @function
_ZNSt8_Rb_treeIcSt4pairIKciESt10_Select1stIS2_ESt4lessIcESaIS2_EE5eraseERS1_:
.LFB2606:
	.cfi_startproc
	pushq	%rbp
	.cfi_def_cfa_offset 16
	.cfi_offset 6, -16
	movq	%rsp, %rbp
	.cfi_def_cfa_register 6
	subq	$80, %rsp
	movq	%rdi, -72(%rbp)
	movq	%rsi, -80(%rbp)
	movq	%fs:40, %rax
	movq	%rax, -8(%rbp)
	xorl	%eax, %eax
	movq	-80(%rbp), %rdx
	movq	-72(%rbp), %rax
	movq	%rdx, %rsi
	movq	%rax, %rdi
	call	_ZNSt8_Rb_treeIcSt4pairIKciESt10_Select1stIS2_ESt4lessIcESaIS2_EE11equal_rangeERS1_
	movq	%rax, -32(%rbp)
	movq	%rdx, -24(%rbp)
	movq	-72(%rbp), %rax
	movq	%rax, %rdi
	call	_ZNKSt8_Rb_treeIcSt4pairIKciESt10_Select1stIS2_ESt4lessIcESaIS2_EE4sizeEv
	movq	%rax, -40(%rbp)
	leaq	-32(%rbp), %rax
	leaq	8(%rax), %rdx
	leaq	-48(%rbp), %rax
	movq	%rdx, %rsi
	movq	%rax, %rdi
	call	_ZNSt23_Rb_tree_const_iteratorISt4pairIKciEEC1ERKSt17_Rb_tree_iteratorIS2_E
	leaq	-32(%rbp), %rdx
	leaq	-56(%rbp), %rax
	movq	%rdx, %rsi
	movq	%rax, %rdi
	call	_ZNSt23_Rb_tree_const_iteratorISt4pairIKciEEC1ERKSt17_Rb_tree_iteratorIS2_E
	movq	-48(%rbp), %rdx
	movq	-56(%rbp), %rcx
	movq	-72(%rbp), %rax
	movq	%rcx, %rsi
	movq	%rax, %rdi
	call	_ZNSt8_Rb_treeIcSt4pairIKciESt10_Select1stIS2_ESt4lessIcESaIS2_EE12_M_erase_auxESt23_Rb_tree_const_iteratorIS2_ESA_
	movq	-72(%rbp), %rax
	movq	%rax, %rdi
	call	_ZNKSt8_Rb_treeIcSt4pairIKciESt10_Select1stIS2_ESt4lessIcESaIS2_EE4sizeEv
	movq	%rax, %rdx
	movq	-40(%rbp), %rax
	subq	%rdx, %rax
	movq	-8(%rbp), %rcx
	xorq	%fs:40, %rcx
	je	.L152
	call	__stack_chk_fail@PLT
.L152:
	leave
	.cfi_def_cfa 7, 8
	ret
	.cfi_endproc
.LFE2606:
	.size	_ZNSt8_Rb_treeIcSt4pairIKciESt10_Select1stIS2_ESt4lessIcESaIS2_EE5eraseERS1_, .-_ZNSt8_Rb_treeIcSt4pairIKciESt10_Select1stIS2_ESt4lessIcESaIS2_EE5eraseERS1_
	.section	.text._ZNSt8_Rb_treeIcSt4pairIKciESt10_Select1stIS2_ESt4lessIcESaIS2_EE3endEv,"axG",@progbits,_ZNSt8_Rb_treeIcSt4pairIKciESt10_Select1stIS2_ESt4lessIcESaIS2_EE3endEv,comdat
	.align 2
	.weak	_ZNSt8_Rb_treeIcSt4pairIKciESt10_Select1stIS2_ESt4lessIcESaIS2_EE3endEv
	.type	_ZNSt8_Rb_treeIcSt4pairIKciESt10_Select1stIS2_ESt4lessIcESaIS2_EE3endEv, @function
_ZNSt8_Rb_treeIcSt4pairIKciESt10_Select1stIS2_ESt4lessIcESaIS2_EE3endEv:
.LFB2611:
	.cfi_startproc
	pushq	%rbp
	.cfi_def_cfa_offset 16
	.cfi_offset 6, -16
	movq	%rsp, %rbp
	.cfi_def_cfa_register 6
	subq	$32, %rsp
	movq	%rdi, -24(%rbp)
	movq	%fs:40, %rax
	movq	%rax, -8(%rbp)
	xorl	%eax, %eax
	movq	-24(%rbp), %rax
	leaq	8(%rax), %rdx
	leaq	-16(%rbp), %rax
	movq	%rdx, %rsi
	movq	%rax, %rdi
	call	_ZNSt17_Rb_tree_iteratorISt4pairIKciEEC1EPSt18_Rb_tree_node_base
	movq	-16(%rbp), %rax
	movq	-8(%rbp), %rcx
	xorq	%fs:40, %rcx
	je	.L155
	call	__stack_chk_fail@PLT
.L155:
	leave
	.cfi_def_cfa 7, 8
	ret
	.cfi_endproc
.LFE2611:
	.size	_ZNSt8_Rb_treeIcSt4pairIKciESt10_Select1stIS2_ESt4lessIcESaIS2_EE3endEv, .-_ZNSt8_Rb_treeIcSt4pairIKciESt10_Select1stIS2_ESt4lessIcESaIS2_EE3endEv
	.section	.text._ZNSt8_Rb_treeIcSt4pairIKciESt10_Select1stIS2_ESt4lessIcESaIS2_EE5eraseB5cxx11ESt23_Rb_tree_const_iteratorIS2_ESA_,"axG",@progbits,_ZNSt8_Rb_treeIcSt4pairIKciESt10_Select1stIS2_ESt4lessIcESaIS2_EE5eraseB5cxx11ESt23_Rb_tree_const_iteratorIS2_ESA_,comdat
	.align 2
	.weak	_ZNSt8_Rb_treeIcSt4pairIKciESt10_Select1stIS2_ESt4lessIcESaIS2_EE5eraseB5cxx11ESt23_Rb_tree_const_iteratorIS2_ESA_
	.type	_ZNSt8_Rb_treeIcSt4pairIKciESt10_Select1stIS2_ESt4lessIcESaIS2_EE5eraseB5cxx11ESt23_Rb_tree_const_iteratorIS2_ESA_, @function
_ZNSt8_Rb_treeIcSt4pairIKciESt10_Select1stIS2_ESt4lessIcESaIS2_EE5eraseB5cxx11ESt23_Rb_tree_const_iteratorIS2_ESA_:
.LFB2612:
	.cfi_startproc
	pushq	%rbp
	.cfi_def_cfa_offset 16
	.cfi_offset 6, -16
	movq	%rsp, %rbp
	.cfi_def_cfa_register 6
	subq	$32, %rsp
	movq	%rdi, -8(%rbp)
	movq	%rsi, -16(%rbp)
	movq	%rdx, -24(%rbp)
	movq	-24(%rbp), %rdx
	movq	-16(%rbp), %rcx
	movq	-8(%rbp), %rax
	movq	%rcx, %rsi
	movq	%rax, %rdi
	call	_ZNSt8_Rb_treeIcSt4pairIKciESt10_Select1stIS2_ESt4lessIcESaIS2_EE12_M_erase_auxESt23_Rb_tree_const_iteratorIS2_ESA_
	leaq	-24(%rbp), %rax
	movq	%rax, %rdi
	call	_ZNKSt23_Rb_tree_const_iteratorISt4pairIKciEE13_M_const_castEv
	leave
	.cfi_def_cfa 7, 8
	ret
	.cfi_endproc
.LFE2612:
	.size	_ZNSt8_Rb_treeIcSt4pairIKciESt10_Select1stIS2_ESt4lessIcESaIS2_EE5eraseB5cxx11ESt23_Rb_tree_const_iteratorIS2_ESA_, .-_ZNSt8_Rb_treeIcSt4pairIKciESt10_Select1stIS2_ESt4lessIcESaIS2_EE5eraseB5cxx11ESt23_Rb_tree_const_iteratorIS2_ESA_
	.section	.text._ZNSt8_Rb_treeIcSt4pairIKciESt10_Select1stIS2_ESt4lessIcESaIS2_EE5beginEv,"axG",@progbits,_ZNSt8_Rb_treeIcSt4pairIKciESt10_Select1stIS2_ESt4lessIcESaIS2_EE5beginEv,comdat
	.align 2
	.weak	_ZNSt8_Rb_treeIcSt4pairIKciESt10_Select1stIS2_ESt4lessIcESaIS2_EE5beginEv
	.type	_ZNSt8_Rb_treeIcSt4pairIKciESt10_Select1stIS2_ESt4lessIcESaIS2_EE5beginEv, @function
_ZNSt8_Rb_treeIcSt4pairIKciESt10_Select1stIS2_ESt4lessIcESaIS2_EE5beginEv:
.LFB2613:
	.cfi_startproc
	pushq	%rbp
	.cfi_def_cfa_offset 16
	.cfi_offset 6, -16
	movq	%rsp, %rbp
	.cfi_def_cfa_register 6
	subq	$32, %rsp
	movq	%rdi, -24(%rbp)
	movq	%fs:40, %rax
	movq	%rax, -8(%rbp)
	xorl	%eax, %eax
	movq	-24(%rbp), %rax
	movq	24(%rax), %rdx
	leaq	-16(%rbp), %rax
	movq	%rdx, %rsi
	movq	%rax, %rdi
	call	_ZNSt17_Rb_tree_iteratorISt4pairIKciEEC1EPSt18_Rb_tree_node_base
	movq	-16(%rbp), %rax
	movq	-8(%rbp), %rcx
	xorq	%fs:40, %rcx
	je	.L160
	call	__stack_chk_fail@PLT
.L160:
	leave
	.cfi_def_cfa 7, 8
	ret
	.cfi_endproc
.LFE2613:
	.size	_ZNSt8_Rb_treeIcSt4pairIKciESt10_Select1stIS2_ESt4lessIcESaIS2_EE5beginEv, .-_ZNSt8_Rb_treeIcSt4pairIKciESt10_Select1stIS2_ESt4lessIcESaIS2_EE5beginEv
	.section	.text._ZNSt13_Rb_tree_nodeISt4pairIKciEE9_M_valptrEv,"axG",@progbits,_ZNSt13_Rb_tree_nodeISt4pairIKciEE9_M_valptrEv,comdat
	.align 2
	.weak	_ZNSt13_Rb_tree_nodeISt4pairIKciEE9_M_valptrEv
	.type	_ZNSt13_Rb_tree_nodeISt4pairIKciEE9_M_valptrEv, @function
_ZNSt13_Rb_tree_nodeISt4pairIKciEE9_M_valptrEv:
.LFB2614:
	.cfi_startproc
	pushq	%rbp
	.cfi_def_cfa_offset 16
	.cfi_offset 6, -16
	movq	%rsp, %rbp
	.cfi_def_cfa_register 6
	subq	$16, %rsp
	movq	%rdi, -8(%rbp)
	movq	-8(%rbp), %rax
	addq	$32, %rax
	movq	%rax, %rdi
	call	_ZN9__gnu_cxx16__aligned_membufISt4pairIKciEE6_M_ptrEv
	leave
	.cfi_def_cfa 7, 8
	ret
	.cfi_endproc
.LFE2614:
	.size	_ZNSt13_Rb_tree_nodeISt4pairIKciEE9_M_valptrEv, .-_ZNSt13_Rb_tree_nodeISt4pairIKciEE9_M_valptrEv
	.section	.text._ZNSaISt13_Rb_tree_nodeISt4pairIKicEEEC2Ev,"axG",@progbits,_ZNSaISt13_Rb_tree_nodeISt4pairIKicEEEC5Ev,comdat
	.align 2
	.weak	_ZNSaISt13_Rb_tree_nodeISt4pairIKicEEEC2Ev
	.type	_ZNSaISt13_Rb_tree_nodeISt4pairIKicEEEC2Ev, @function
_ZNSaISt13_Rb_tree_nodeISt4pairIKicEEEC2Ev:
.LFB2619:
	.cfi_startproc
	pushq	%rbp
	.cfi_def_cfa_offset 16
	.cfi_offset 6, -16
	movq	%rsp, %rbp
	.cfi_def_cfa_register 6
	subq	$16, %rsp
	movq	%rdi, -8(%rbp)
	movq	-8(%rbp), %rax
	movq	%rax, %rdi
	call	_ZN9__gnu_cxx13new_allocatorISt13_Rb_tree_nodeISt4pairIKicEEEC2Ev
	nop
	leave
	.cfi_def_cfa 7, 8
	ret
	.cfi_endproc
.LFE2619:
	.size	_ZNSaISt13_Rb_tree_nodeISt4pairIKicEEEC2Ev, .-_ZNSaISt13_Rb_tree_nodeISt4pairIKicEEEC2Ev
	.weak	_ZNSaISt13_Rb_tree_nodeISt4pairIKicEEEC1Ev
	.set	_ZNSaISt13_Rb_tree_nodeISt4pairIKicEEEC1Ev,_ZNSaISt13_Rb_tree_nodeISt4pairIKicEEEC2Ev
	.section	.text._ZNSt20_Rb_tree_key_compareISt4lessIiEEC2Ev,"axG",@progbits,_ZNSt20_Rb_tree_key_compareISt4lessIiEEC5Ev,comdat
	.align 2
	.weak	_ZNSt20_Rb_tree_key_compareISt4lessIiEEC2Ev
	.type	_ZNSt20_Rb_tree_key_compareISt4lessIiEEC2Ev, @function
_ZNSt20_Rb_tree_key_compareISt4lessIiEEC2Ev:
.LFB2622:
	.cfi_startproc
	pushq	%rbp
	.cfi_def_cfa_offset 16
	.cfi_offset 6, -16
	movq	%rsp, %rbp
	.cfi_def_cfa_register 6
	movq	%rdi, -8(%rbp)
	nop
	popq	%rbp
	.cfi_def_cfa 7, 8
	ret
	.cfi_endproc
.LFE2622:
	.size	_ZNSt20_Rb_tree_key_compareISt4lessIiEEC2Ev, .-_ZNSt20_Rb_tree_key_compareISt4lessIiEEC2Ev
	.weak	_ZNSt20_Rb_tree_key_compareISt4lessIiEEC1Ev
	.set	_ZNSt20_Rb_tree_key_compareISt4lessIiEEC1Ev,_ZNSt20_Rb_tree_key_compareISt4lessIiEEC2Ev
	.section	.text._ZN9__gnu_cxx13new_allocatorISt13_Rb_tree_nodeISt4pairIKicEEED2Ev,"axG",@progbits,_ZN9__gnu_cxx13new_allocatorISt13_Rb_tree_nodeISt4pairIKicEEED5Ev,comdat
	.align 2
	.weak	_ZN9__gnu_cxx13new_allocatorISt13_Rb_tree_nodeISt4pairIKicEEED2Ev
	.type	_ZN9__gnu_cxx13new_allocatorISt13_Rb_tree_nodeISt4pairIKicEEED2Ev, @function
_ZN9__gnu_cxx13new_allocatorISt13_Rb_tree_nodeISt4pairIKicEEED2Ev:
.LFB2625:
	.cfi_startproc
	pushq	%rbp
	.cfi_def_cfa_offset 16
	.cfi_offset 6, -16
	movq	%rsp, %rbp
	.cfi_def_cfa_register 6
	movq	%rdi, -8(%rbp)
	nop
	popq	%rbp
	.cfi_def_cfa 7, 8
	ret
	.cfi_endproc
.LFE2625:
	.size	_ZN9__gnu_cxx13new_allocatorISt13_Rb_tree_nodeISt4pairIKicEEED2Ev, .-_ZN9__gnu_cxx13new_allocatorISt13_Rb_tree_nodeISt4pairIKicEEED2Ev
	.weak	_ZN9__gnu_cxx13new_allocatorISt13_Rb_tree_nodeISt4pairIKicEEED1Ev
	.set	_ZN9__gnu_cxx13new_allocatorISt13_Rb_tree_nodeISt4pairIKicEEED1Ev,_ZN9__gnu_cxx13new_allocatorISt13_Rb_tree_nodeISt4pairIKicEEED2Ev
	.section	.text._ZNSt8_Rb_treeIiSt4pairIKicESt10_Select1stIS2_ESt4lessIiESaIS2_EE8_M_eraseEPSt13_Rb_tree_nodeIS2_E,"axG",@progbits,_ZNSt8_Rb_treeIiSt4pairIKicESt10_Select1stIS2_ESt4lessIiESaIS2_EE8_M_eraseEPSt13_Rb_tree_nodeIS2_E,comdat
	.align 2
	.weak	_ZNSt8_Rb_treeIiSt4pairIKicESt10_Select1stIS2_ESt4lessIiESaIS2_EE8_M_eraseEPSt13_Rb_tree_nodeIS2_E
	.type	_ZNSt8_Rb_treeIiSt4pairIKicESt10_Select1stIS2_ESt4lessIiESaIS2_EE8_M_eraseEPSt13_Rb_tree_nodeIS2_E, @function
_ZNSt8_Rb_treeIiSt4pairIKicESt10_Select1stIS2_ESt4lessIiESaIS2_EE8_M_eraseEPSt13_Rb_tree_nodeIS2_E:
.LFB2627:
	.cfi_startproc
	pushq	%rbp
	.cfi_def_cfa_offset 16
	.cfi_offset 6, -16
	movq	%rsp, %rbp
	.cfi_def_cfa_register 6
	subq	$32, %rsp
	movq	%rdi, -24(%rbp)
	movq	%rsi, -32(%rbp)
.L168:
	cmpq	$0, -32(%rbp)
	je	.L169
	movq	-32(%rbp), %rax
	movq	%rax, %rdi
	call	_ZNSt8_Rb_treeIiSt4pairIKicESt10_Select1stIS2_ESt4lessIiESaIS2_EE8_S_rightEPSt18_Rb_tree_node_base
	movq	%rax, %rdx
	movq	-24(%rbp), %rax
	movq	%rdx, %rsi
	movq	%rax, %rdi
	call	_ZNSt8_Rb_treeIiSt4pairIKicESt10_Select1stIS2_ESt4lessIiESaIS2_EE8_M_eraseEPSt13_Rb_tree_nodeIS2_E
	movq	-32(%rbp), %rax
	movq	%rax, %rdi
	call	_ZNSt8_Rb_treeIiSt4pairIKicESt10_Select1stIS2_ESt4lessIiESaIS2_EE7_S_leftEPSt18_Rb_tree_node_base
	movq	%rax, -8(%rbp)
	movq	-32(%rbp), %rdx
	movq	-24(%rbp), %rax
	movq	%rdx, %rsi
	movq	%rax, %rdi
	call	_ZNSt8_Rb_treeIiSt4pairIKicESt10_Select1stIS2_ESt4lessIiESaIS2_EE12_M_drop_nodeEPSt13_Rb_tree_nodeIS2_E
	movq	-8(%rbp), %rax
	movq	%rax, -32(%rbp)
	jmp	.L168
.L169:
	nop
	leave
	.cfi_def_cfa 7, 8
	ret
	.cfi_endproc
.LFE2627:
	.size	_ZNSt8_Rb_treeIiSt4pairIKicESt10_Select1stIS2_ESt4lessIiESaIS2_EE8_M_eraseEPSt13_Rb_tree_nodeIS2_E, .-_ZNSt8_Rb_treeIiSt4pairIKicESt10_Select1stIS2_ESt4lessIiESaIS2_EE8_M_eraseEPSt13_Rb_tree_nodeIS2_E
	.section	.text._ZNSt8_Rb_treeIiSt4pairIKicESt10_Select1stIS2_ESt4lessIiESaIS2_EE8_M_beginEv,"axG",@progbits,_ZNSt8_Rb_treeIiSt4pairIKicESt10_Select1stIS2_ESt4lessIiESaIS2_EE8_M_beginEv,comdat
	.align 2
	.weak	_ZNSt8_Rb_treeIiSt4pairIKicESt10_Select1stIS2_ESt4lessIiESaIS2_EE8_M_beginEv
	.type	_ZNSt8_Rb_treeIiSt4pairIKicESt10_Select1stIS2_ESt4lessIiESaIS2_EE8_M_beginEv, @function
_ZNSt8_Rb_treeIiSt4pairIKicESt10_Select1stIS2_ESt4lessIiESaIS2_EE8_M_beginEv:
.LFB2628:
	.cfi_startproc
	pushq	%rbp
	.cfi_def_cfa_offset 16
	.cfi_offset 6, -16
	movq	%rsp, %rbp
	.cfi_def_cfa_register 6
	movq	%rdi, -8(%rbp)
	movq	-8(%rbp), %rax
	movq	16(%rax), %rax
	popq	%rbp
	.cfi_def_cfa 7, 8
	ret
	.cfi_endproc
.LFE2628:
	.size	_ZNSt8_Rb_treeIiSt4pairIKicESt10_Select1stIS2_ESt4lessIiESaIS2_EE8_M_beginEv, .-_ZNSt8_Rb_treeIiSt4pairIKicESt10_Select1stIS2_ESt4lessIiESaIS2_EE8_M_beginEv
	.section	.text._ZNSt8_Rb_treeIiSt4pairIKicESt10_Select1stIS2_ESt4lessIiESaIS2_EE17_M_emplace_uniqueIJS0_IicEEEES0_ISt17_Rb_tree_iteratorIS2_EbEDpOT_,"axG",@progbits,_ZNSt8_Rb_treeIiSt4pairIKicESt10_Select1stIS2_ESt4lessIiESaIS2_EE17_M_emplace_uniqueIJS0_IicEEEES0_ISt17_Rb_tree_iteratorIS2_EbEDpOT_,comdat
	.align 2
	.weak	_ZNSt8_Rb_treeIiSt4pairIKicESt10_Select1stIS2_ESt4lessIiESaIS2_EE17_M_emplace_uniqueIJS0_IicEEEES0_ISt17_Rb_tree_iteratorIS2_EbEDpOT_
	.type	_ZNSt8_Rb_treeIiSt4pairIKicESt10_Select1stIS2_ESt4lessIiESaIS2_EE17_M_emplace_uniqueIJS0_IicEEEES0_ISt17_Rb_tree_iteratorIS2_EbEDpOT_, @function
_ZNSt8_Rb_treeIiSt4pairIKicESt10_Select1stIS2_ESt4lessIiESaIS2_EE17_M_emplace_uniqueIJS0_IicEEEES0_ISt17_Rb_tree_iteratorIS2_EbEDpOT_:
.LFB2629:
	.cfi_startproc
	.cfi_personality 0x9b,DW.ref.__gxx_personality_v0
	.cfi_lsda 0x1b,.LLSDA2629
	pushq	%rbp
	.cfi_def_cfa_offset 16
	.cfi_offset 6, -16
	movq	%rsp, %rbp
	.cfi_def_cfa_register 6
	pushq	%rbx
	subq	$104, %rsp
	.cfi_offset 3, -24
	movq	%rdi, -104(%rbp)
	movq	%rsi, -112(%rbp)
	movq	%fs:40, %rax
	movq	%rax, -24(%rbp)
	xorl	%eax, %eax
	movq	-112(%rbp), %rax
	movq	%rax, %rdi
	call	_ZSt7forwardISt4pairIicEEOT_RNSt16remove_referenceIS2_E4typeE
	movq	%rax, %rdx
	movq	-104(%rbp), %rax
	movq	%rdx, %rsi
	movq	%rax, %rdi
.LEHB7:
	call	_ZNSt8_Rb_treeIiSt4pairIKicESt10_Select1stIS2_ESt4lessIiESaIS2_EE14_M_create_nodeIJS0_IicEEEEPSt13_Rb_tree_nodeIS2_EDpOT_
.LEHE7:
	movq	%rax, -72(%rbp)
	movq	-72(%rbp), %rax
	movq	%rax, %rdi
.LEHB8:
	call	_ZNSt8_Rb_treeIiSt4pairIKicESt10_Select1stIS2_ESt4lessIiESaIS2_EE6_S_keyEPKSt13_Rb_tree_nodeIS2_E
	movq	%rax, %rdx
	movq	-104(%rbp), %rax
	movq	%rdx, %rsi
	movq	%rax, %rdi
	call	_ZNSt8_Rb_treeIiSt4pairIKicESt10_Select1stIS2_ESt4lessIiESaIS2_EE24_M_get_insert_unique_posERS1_
	movq	%rax, -64(%rbp)
	movq	%rdx, -56(%rbp)
	movq	-56(%rbp), %rax
	testq	%rax, %rax
	je	.L173
	movb	$1, -81(%rbp)
	movq	-56(%rbp), %rdx
	movq	-64(%rbp), %rsi
	movq	-72(%rbp), %rcx
	movq	-104(%rbp), %rax
	movq	%rax, %rdi
	call	_ZNSt8_Rb_treeIiSt4pairIKicESt10_Select1stIS2_ESt4lessIiESaIS2_EE14_M_insert_nodeEPSt18_Rb_tree_node_baseSA_PSt13_Rb_tree_nodeIS2_E
.LEHE8:
	movq	%rax, -80(%rbp)
	leaq	-81(%rbp), %rdx
	leaq	-80(%rbp), %rcx
	leaq	-48(%rbp), %rax
	movq	%rcx, %rsi
	movq	%rax, %rdi
	call	_ZNSt4pairISt17_Rb_tree_iteratorIS_IKicEEbEC1IS3_bLb1EEEOT_OT0_
	movq	-48(%rbp), %rax
	movq	-40(%rbp), %rdx
	jmp	.L175
.L173:
	movq	-72(%rbp), %rdx
	movq	-104(%rbp), %rax
	movq	%rdx, %rsi
	movq	%rax, %rdi
	call	_ZNSt8_Rb_treeIiSt4pairIKicESt10_Select1stIS2_ESt4lessIiESaIS2_EE12_M_drop_nodeEPSt13_Rb_tree_nodeIS2_E
	movb	$0, -81(%rbp)
	movq	-64(%rbp), %rdx
	leaq	-80(%rbp), %rax
	movq	%rdx, %rsi
	movq	%rax, %rdi
	call	_ZNSt17_Rb_tree_iteratorISt4pairIKicEEC1EPSt18_Rb_tree_node_base
	leaq	-81(%rbp), %rdx
	leaq	-80(%rbp), %rcx
	leaq	-48(%rbp), %rax
	movq	%rcx, %rsi
	movq	%rax, %rdi
	call	_ZNSt4pairISt17_Rb_tree_iteratorIS_IKicEEbEC1IS3_bLb1EEEOT_OT0_
	movq	-48(%rbp), %rax
	movq	-40(%rbp), %rdx
.L175:
	movq	-24(%rbp), %rbx
	xorq	%fs:40, %rbx
	je	.L178
	jmp	.L181
.L179:
	movq	%rax, %rdi
	call	__cxa_begin_catch@PLT
	movq	-72(%rbp), %rdx
	movq	-104(%rbp), %rax
	movq	%rdx, %rsi
	movq	%rax, %rdi
	call	_ZNSt8_Rb_treeIiSt4pairIKicESt10_Select1stIS2_ESt4lessIiESaIS2_EE12_M_drop_nodeEPSt13_Rb_tree_nodeIS2_E
.LEHB9:
	call	__cxa_rethrow@PLT
.LEHE9:
.L180:
	movq	%rax, %rbx
	call	__cxa_end_catch@PLT
	movq	%rbx, %rax
	movq	%rax, %rdi
.LEHB10:
	call	_Unwind_Resume@PLT
.LEHE10:
.L181:
	call	__stack_chk_fail@PLT
.L178:
	addq	$104, %rsp
	popq	%rbx
	popq	%rbp
	.cfi_def_cfa 7, 8
	ret
	.cfi_endproc
.LFE2629:
	.section	.gcc_except_table
	.align 4
.LLSDA2629:
	.byte	0xff
	.byte	0x9b
	.uleb128 .LLSDATT2629-.LLSDATTD2629
.LLSDATTD2629:
	.byte	0x1
	.uleb128 .LLSDACSE2629-.LLSDACSB2629
.LLSDACSB2629:
	.uleb128 .LEHB7-.LFB2629
	.uleb128 .LEHE7-.LEHB7
	.uleb128 0
	.uleb128 0
	.uleb128 .LEHB8-.LFB2629
	.uleb128 .LEHE8-.LEHB8
	.uleb128 .L179-.LFB2629
	.uleb128 0x1
	.uleb128 .LEHB9-.LFB2629
	.uleb128 .LEHE9-.LEHB9
	.uleb128 .L180-.LFB2629
	.uleb128 0
	.uleb128 .LEHB10-.LFB2629
	.uleb128 .LEHE10-.LEHB10
	.uleb128 0
	.uleb128 0
.LLSDACSE2629:
	.byte	0x1
	.byte	0
	.align 4
	.long	0

.LLSDATT2629:
	.section	.text._ZNSt8_Rb_treeIiSt4pairIKicESt10_Select1stIS2_ESt4lessIiESaIS2_EE17_M_emplace_uniqueIJS0_IicEEEES0_ISt17_Rb_tree_iteratorIS2_EbEDpOT_,"axG",@progbits,_ZNSt8_Rb_treeIiSt4pairIKicESt10_Select1stIS2_ESt4lessIiESaIS2_EE17_M_emplace_uniqueIJS0_IicEEEES0_ISt17_Rb_tree_iteratorIS2_EbEDpOT_,comdat
	.size	_ZNSt8_Rb_treeIiSt4pairIKicESt10_Select1stIS2_ESt4lessIiESaIS2_EE17_M_emplace_uniqueIJS0_IicEEEES0_ISt17_Rb_tree_iteratorIS2_EbEDpOT_, .-_ZNSt8_Rb_treeIiSt4pairIKicESt10_Select1stIS2_ESt4lessIiESaIS2_EE17_M_emplace_uniqueIJS0_IicEEEES0_ISt17_Rb_tree_iteratorIS2_EbEDpOT_
	.section	.text._ZNSt8_Rb_treeIiSt4pairIKicESt10_Select1stIS2_ESt4lessIiESaIS2_EE5beginEv,"axG",@progbits,_ZNSt8_Rb_treeIiSt4pairIKicESt10_Select1stIS2_ESt4lessIiESaIS2_EE5beginEv,comdat
	.align 2
	.weak	_ZNSt8_Rb_treeIiSt4pairIKicESt10_Select1stIS2_ESt4lessIiESaIS2_EE5beginEv
	.type	_ZNSt8_Rb_treeIiSt4pairIKicESt10_Select1stIS2_ESt4lessIiESaIS2_EE5beginEv, @function
_ZNSt8_Rb_treeIiSt4pairIKicESt10_Select1stIS2_ESt4lessIiESaIS2_EE5beginEv:
.LFB2638:
	.cfi_startproc
	pushq	%rbp
	.cfi_def_cfa_offset 16
	.cfi_offset 6, -16
	movq	%rsp, %rbp
	.cfi_def_cfa_register 6
	subq	$32, %rsp
	movq	%rdi, -24(%rbp)
	movq	%fs:40, %rax
	movq	%rax, -8(%rbp)
	xorl	%eax, %eax
	movq	-24(%rbp), %rax
	movq	24(%rax), %rdx
	leaq	-16(%rbp), %rax
	movq	%rdx, %rsi
	movq	%rax, %rdi
	call	_ZNSt17_Rb_tree_iteratorISt4pairIKicEEC1EPSt18_Rb_tree_node_base
	movq	-16(%rbp), %rax
	movq	-8(%rbp), %rcx
	xorq	%fs:40, %rcx
	je	.L184
	call	__stack_chk_fail@PLT
.L184:
	leave
	.cfi_def_cfa 7, 8
	ret
	.cfi_endproc
.LFE2638:
	.size	_ZNSt8_Rb_treeIiSt4pairIKicESt10_Select1stIS2_ESt4lessIiESaIS2_EE5beginEv, .-_ZNSt8_Rb_treeIiSt4pairIKicESt10_Select1stIS2_ESt4lessIiESaIS2_EE5beginEv
	.section	.text._ZNSt8_Rb_treeIiSt4pairIKicESt10_Select1stIS2_ESt4lessIiESaIS2_EE3endEv,"axG",@progbits,_ZNSt8_Rb_treeIiSt4pairIKicESt10_Select1stIS2_ESt4lessIiESaIS2_EE3endEv,comdat
	.align 2
	.weak	_ZNSt8_Rb_treeIiSt4pairIKicESt10_Select1stIS2_ESt4lessIiESaIS2_EE3endEv
	.type	_ZNSt8_Rb_treeIiSt4pairIKicESt10_Select1stIS2_ESt4lessIiESaIS2_EE3endEv, @function
_ZNSt8_Rb_treeIiSt4pairIKicESt10_Select1stIS2_ESt4lessIiESaIS2_EE3endEv:
.LFB2639:
	.cfi_startproc
	pushq	%rbp
	.cfi_def_cfa_offset 16
	.cfi_offset 6, -16
	movq	%rsp, %rbp
	.cfi_def_cfa_register 6
	subq	$32, %rsp
	movq	%rdi, -24(%rbp)
	movq	%fs:40, %rax
	movq	%rax, -8(%rbp)
	xorl	%eax, %eax
	movq	-24(%rbp), %rax
	leaq	8(%rax), %rdx
	leaq	-16(%rbp), %rax
	movq	%rdx, %rsi
	movq	%rax, %rdi
	call	_ZNSt17_Rb_tree_iteratorISt4pairIKicEEC1EPSt18_Rb_tree_node_base
	movq	-16(%rbp), %rax
	movq	-8(%rbp), %rcx
	xorq	%fs:40, %rcx
	je	.L187
	call	__stack_chk_fail@PLT
.L187:
	leave
	.cfi_def_cfa 7, 8
	ret
	.cfi_endproc
.LFE2639:
	.size	_ZNSt8_Rb_treeIiSt4pairIKicESt10_Select1stIS2_ESt4lessIiESaIS2_EE3endEv, .-_ZNSt8_Rb_treeIiSt4pairIKicESt10_Select1stIS2_ESt4lessIiESaIS2_EE3endEv
	.section	.text._ZNSt13_Rb_tree_nodeISt4pairIKicEE9_M_valptrEv,"axG",@progbits,_ZNSt13_Rb_tree_nodeISt4pairIKicEE9_M_valptrEv,comdat
	.align 2
	.weak	_ZNSt13_Rb_tree_nodeISt4pairIKicEE9_M_valptrEv
	.type	_ZNSt13_Rb_tree_nodeISt4pairIKicEE9_M_valptrEv, @function
_ZNSt13_Rb_tree_nodeISt4pairIKicEE9_M_valptrEv:
.LFB2640:
	.cfi_startproc
	pushq	%rbp
	.cfi_def_cfa_offset 16
	.cfi_offset 6, -16
	movq	%rsp, %rbp
	.cfi_def_cfa_register 6
	subq	$16, %rsp
	movq	%rdi, -8(%rbp)
	movq	-8(%rbp), %rax
	addq	$32, %rax
	movq	%rax, %rdi
	call	_ZN9__gnu_cxx16__aligned_membufISt4pairIKicEE6_M_ptrEv
	leave
	.cfi_def_cfa 7, 8
	ret
	.cfi_endproc
.LFE2640:
	.size	_ZNSt13_Rb_tree_nodeISt4pairIKicEE9_M_valptrEv, .-_ZNSt13_Rb_tree_nodeISt4pairIKicEE9_M_valptrEv
	.section	.text._ZNSt8_Rb_treeIiSt4pairIKicESt10_Select1stIS2_ESt4lessIiESaIS2_EE4findERS1_,"axG",@progbits,_ZNSt8_Rb_treeIiSt4pairIKicESt10_Select1stIS2_ESt4lessIiESaIS2_EE4findERS1_,comdat
	.align 2
	.weak	_ZNSt8_Rb_treeIiSt4pairIKicESt10_Select1stIS2_ESt4lessIiESaIS2_EE4findERS1_
	.type	_ZNSt8_Rb_treeIiSt4pairIKicESt10_Select1stIS2_ESt4lessIiESaIS2_EE4findERS1_, @function
_ZNSt8_Rb_treeIiSt4pairIKicESt10_Select1stIS2_ESt4lessIiESaIS2_EE4findERS1_:
.LFB2641:
	.cfi_startproc
	pushq	%rbp
	.cfi_def_cfa_offset 16
	.cfi_offset 6, -16
	movq	%rsp, %rbp
	.cfi_def_cfa_register 6
	pushq	%rbx
	subq	$56, %rsp
	.cfi_offset 3, -24
	movq	%rdi, -56(%rbp)
	movq	%rsi, -64(%rbp)
	movq	%fs:40, %rax
	movq	%rax, -24(%rbp)
	xorl	%eax, %eax
	movq	-56(%rbp), %rax
	movq	%rax, %rdi
	call	_ZNSt8_Rb_treeIiSt4pairIKicESt10_Select1stIS2_ESt4lessIiESaIS2_EE6_M_endEv
	movq	%rax, %rbx
	movq	-56(%rbp), %rax
	movq	%rax, %rdi
	call	_ZNSt8_Rb_treeIiSt4pairIKicESt10_Select1stIS2_ESt4lessIiESaIS2_EE8_M_beginEv
	movq	%rax, %rsi
	movq	-64(%rbp), %rdx
	movq	-56(%rbp), %rax
	movq	%rdx, %rcx
	movq	%rbx, %rdx
	movq	%rax, %rdi
	call	_ZNSt8_Rb_treeIiSt4pairIKicESt10_Select1stIS2_ESt4lessIiESaIS2_EE14_M_lower_boundEPSt13_Rb_tree_nodeIS2_EPSt18_Rb_tree_node_baseRS1_
	movq	%rax, -40(%rbp)
	movq	-56(%rbp), %rax
	movq	%rax, %rdi
	call	_ZNSt8_Rb_treeIiSt4pairIKicESt10_Select1stIS2_ESt4lessIiESaIS2_EE3endEv
	movq	%rax, -32(%rbp)
	leaq	-32(%rbp), %rdx
	leaq	-40(%rbp), %rax
	movq	%rdx, %rsi
	movq	%rax, %rdi
	call	_ZNKSt17_Rb_tree_iteratorISt4pairIKicEEeqERKS3_
	testb	%al, %al
	jne	.L191
	movq	-56(%rbp), %rbx
	movq	-40(%rbp), %rax
	movq	%rax, %rdi
	call	_ZNSt8_Rb_treeIiSt4pairIKicESt10_Select1stIS2_ESt4lessIiESaIS2_EE6_S_keyEPKSt18_Rb_tree_node_base
	movq	%rax, %rdx
	movq	-64(%rbp), %rax
	movq	%rax, %rsi
	movq	%rbx, %rdi
	call	_ZNKSt4lessIiEclERKiS2_
	testb	%al, %al
	je	.L192
.L191:
	movq	-56(%rbp), %rax
	movq	%rax, %rdi
	call	_ZNSt8_Rb_treeIiSt4pairIKicESt10_Select1stIS2_ESt4lessIiESaIS2_EE3endEv
	jmp	.L194
.L192:
	movq	-40(%rbp), %rax
.L194:
	movq	-24(%rbp), %rcx
	xorq	%fs:40, %rcx
	je	.L195
	call	__stack_chk_fail@PLT
.L195:
	addq	$56, %rsp
	popq	%rbx
	popq	%rbp
	.cfi_def_cfa 7, 8
	ret
	.cfi_endproc
.LFE2641:
	.size	_ZNSt8_Rb_treeIiSt4pairIKicESt10_Select1stIS2_ESt4lessIiESaIS2_EE4findERS1_, .-_ZNSt8_Rb_treeIiSt4pairIKicESt10_Select1stIS2_ESt4lessIiESaIS2_EE4findERS1_
	.section	.text._ZNSt8_Rb_treeIiSt4pairIKicESt10_Select1stIS2_ESt4lessIiESaIS2_EE5eraseERS1_,"axG",@progbits,_ZNSt8_Rb_treeIiSt4pairIKicESt10_Select1stIS2_ESt4lessIiESaIS2_EE5eraseERS1_,comdat
	.align 2
	.weak	_ZNSt8_Rb_treeIiSt4pairIKicESt10_Select1stIS2_ESt4lessIiESaIS2_EE5eraseERS1_
	.type	_ZNSt8_Rb_treeIiSt4pairIKicESt10_Select1stIS2_ESt4lessIiESaIS2_EE5eraseERS1_, @function
_ZNSt8_Rb_treeIiSt4pairIKicESt10_Select1stIS2_ESt4lessIiESaIS2_EE5eraseERS1_:
.LFB2642:
	.cfi_startproc
	pushq	%rbp
	.cfi_def_cfa_offset 16
	.cfi_offset 6, -16
	movq	%rsp, %rbp
	.cfi_def_cfa_register 6
	subq	$80, %rsp
	movq	%rdi, -72(%rbp)
	movq	%rsi, -80(%rbp)
	movq	%fs:40, %rax
	movq	%rax, -8(%rbp)
	xorl	%eax, %eax
	movq	-80(%rbp), %rdx
	movq	-72(%rbp), %rax
	movq	%rdx, %rsi
	movq	%rax, %rdi
	call	_ZNSt8_Rb_treeIiSt4pairIKicESt10_Select1stIS2_ESt4lessIiESaIS2_EE11equal_rangeERS1_
	movq	%rax, -32(%rbp)
	movq	%rdx, -24(%rbp)
	movq	-72(%rbp), %rax
	movq	%rax, %rdi
	call	_ZNKSt8_Rb_treeIiSt4pairIKicESt10_Select1stIS2_ESt4lessIiESaIS2_EE4sizeEv
	movq	%rax, -40(%rbp)
	leaq	-32(%rbp), %rax
	leaq	8(%rax), %rdx
	leaq	-48(%rbp), %rax
	movq	%rdx, %rsi
	movq	%rax, %rdi
	call	_ZNSt23_Rb_tree_const_iteratorISt4pairIKicEEC1ERKSt17_Rb_tree_iteratorIS2_E
	leaq	-32(%rbp), %rdx
	leaq	-56(%rbp), %rax
	movq	%rdx, %rsi
	movq	%rax, %rdi
	call	_ZNSt23_Rb_tree_const_iteratorISt4pairIKicEEC1ERKSt17_Rb_tree_iteratorIS2_E
	movq	-48(%rbp), %rdx
	movq	-56(%rbp), %rcx
	movq	-72(%rbp), %rax
	movq	%rcx, %rsi
	movq	%rax, %rdi
	call	_ZNSt8_Rb_treeIiSt4pairIKicESt10_Select1stIS2_ESt4lessIiESaIS2_EE12_M_erase_auxESt23_Rb_tree_const_iteratorIS2_ESA_
	movq	-72(%rbp), %rax
	movq	%rax, %rdi
	call	_ZNKSt8_Rb_treeIiSt4pairIKicESt10_Select1stIS2_ESt4lessIiESaIS2_EE4sizeEv
	movq	%rax, %rdx
	movq	-40(%rbp), %rax
	subq	%rdx, %rax
	movq	-8(%rbp), %rcx
	xorq	%fs:40, %rcx
	je	.L198
	call	__stack_chk_fail@PLT
.L198:
	leave
	.cfi_def_cfa 7, 8
	ret
	.cfi_endproc
.LFE2642:
	.size	_ZNSt8_Rb_treeIiSt4pairIKicESt10_Select1stIS2_ESt4lessIiESaIS2_EE5eraseERS1_, .-_ZNSt8_Rb_treeIiSt4pairIKicESt10_Select1stIS2_ESt4lessIiESaIS2_EE5eraseERS1_
	.section	.text._ZN9__gnu_cxx13new_allocatorISt13_Rb_tree_nodeISt4pairIKciEEEC2Ev,"axG",@progbits,_ZN9__gnu_cxx13new_allocatorISt13_Rb_tree_nodeISt4pairIKciEEEC5Ev,comdat
	.align 2
	.weak	_ZN9__gnu_cxx13new_allocatorISt13_Rb_tree_nodeISt4pairIKciEEEC2Ev
	.type	_ZN9__gnu_cxx13new_allocatorISt13_Rb_tree_nodeISt4pairIKciEEEC2Ev, @function
_ZN9__gnu_cxx13new_allocatorISt13_Rb_tree_nodeISt4pairIKciEEEC2Ev:
.LFB2682:
	.cfi_startproc
	pushq	%rbp
	.cfi_def_cfa_offset 16
	.cfi_offset 6, -16
	movq	%rsp, %rbp
	.cfi_def_cfa_register 6
	movq	%rdi, -8(%rbp)
	nop
	popq	%rbp
	.cfi_def_cfa 7, 8
	ret
	.cfi_endproc
.LFE2682:
	.size	_ZN9__gnu_cxx13new_allocatorISt13_Rb_tree_nodeISt4pairIKciEEEC2Ev, .-_ZN9__gnu_cxx13new_allocatorISt13_Rb_tree_nodeISt4pairIKciEEEC2Ev
	.weak	_ZN9__gnu_cxx13new_allocatorISt13_Rb_tree_nodeISt4pairIKciEEEC1Ev
	.set	_ZN9__gnu_cxx13new_allocatorISt13_Rb_tree_nodeISt4pairIKciEEEC1Ev,_ZN9__gnu_cxx13new_allocatorISt13_Rb_tree_nodeISt4pairIKciEEEC2Ev
	.section	.text._ZNSt8_Rb_treeIcSt4pairIKciESt10_Select1stIS2_ESt4lessIcESaIS2_EE8_S_rightEPSt18_Rb_tree_node_base,"axG",@progbits,_ZNSt8_Rb_treeIcSt4pairIKciESt10_Select1stIS2_ESt4lessIcESaIS2_EE8_S_rightEPSt18_Rb_tree_node_base,comdat
	.weak	_ZNSt8_Rb_treeIcSt4pairIKciESt10_Select1stIS2_ESt4lessIcESaIS2_EE8_S_rightEPSt18_Rb_tree_node_base
	.type	_ZNSt8_Rb_treeIcSt4pairIKciESt10_Select1stIS2_ESt4lessIcESaIS2_EE8_S_rightEPSt18_Rb_tree_node_base, @function
_ZNSt8_Rb_treeIcSt4pairIKciESt10_Select1stIS2_ESt4lessIcESaIS2_EE8_S_rightEPSt18_Rb_tree_node_base:
.LFB2684:
	.cfi_startproc
	pushq	%rbp
	.cfi_def_cfa_offset 16
	.cfi_offset 6, -16
	movq	%rsp, %rbp
	.cfi_def_cfa_register 6
	movq	%rdi, -8(%rbp)
	movq	-8(%rbp), %rax
	movq	24(%rax), %rax
	popq	%rbp
	.cfi_def_cfa 7, 8
	ret
	.cfi_endproc
.LFE2684:
	.size	_ZNSt8_Rb_treeIcSt4pairIKciESt10_Select1stIS2_ESt4lessIcESaIS2_EE8_S_rightEPSt18_Rb_tree_node_base, .-_ZNSt8_Rb_treeIcSt4pairIKciESt10_Select1stIS2_ESt4lessIcESaIS2_EE8_S_rightEPSt18_Rb_tree_node_base
	.section	.text._ZNSt8_Rb_treeIcSt4pairIKciESt10_Select1stIS2_ESt4lessIcESaIS2_EE7_S_leftEPSt18_Rb_tree_node_base,"axG",@progbits,_ZNSt8_Rb_treeIcSt4pairIKciESt10_Select1stIS2_ESt4lessIcESaIS2_EE7_S_leftEPSt18_Rb_tree_node_base,comdat
	.weak	_ZNSt8_Rb_treeIcSt4pairIKciESt10_Select1stIS2_ESt4lessIcESaIS2_EE7_S_leftEPSt18_Rb_tree_node_base
	.type	_ZNSt8_Rb_treeIcSt4pairIKciESt10_Select1stIS2_ESt4lessIcESaIS2_EE7_S_leftEPSt18_Rb_tree_node_base, @function
_ZNSt8_Rb_treeIcSt4pairIKciESt10_Select1stIS2_ESt4lessIcESaIS2_EE7_S_leftEPSt18_Rb_tree_node_base:
.LFB2685:
	.cfi_startproc
	pushq	%rbp
	.cfi_def_cfa_offset 16
	.cfi_offset 6, -16
	movq	%rsp, %rbp
	.cfi_def_cfa_register 6
	movq	%rdi, -8(%rbp)
	movq	-8(%rbp), %rax
	movq	16(%rax), %rax
	popq	%rbp
	.cfi_def_cfa 7, 8
	ret
	.cfi_endproc
.LFE2685:
	.size	_ZNSt8_Rb_treeIcSt4pairIKciESt10_Select1stIS2_ESt4lessIcESaIS2_EE7_S_leftEPSt18_Rb_tree_node_base, .-_ZNSt8_Rb_treeIcSt4pairIKciESt10_Select1stIS2_ESt4lessIcESaIS2_EE7_S_leftEPSt18_Rb_tree_node_base
	.section	.text._ZNSt8_Rb_treeIcSt4pairIKciESt10_Select1stIS2_ESt4lessIcESaIS2_EE12_M_drop_nodeEPSt13_Rb_tree_nodeIS2_E,"axG",@progbits,_ZNSt8_Rb_treeIcSt4pairIKciESt10_Select1stIS2_ESt4lessIcESaIS2_EE12_M_drop_nodeEPSt13_Rb_tree_nodeIS2_E,comdat
	.align 2
	.weak	_ZNSt8_Rb_treeIcSt4pairIKciESt10_Select1stIS2_ESt4lessIcESaIS2_EE12_M_drop_nodeEPSt13_Rb_tree_nodeIS2_E
	.type	_ZNSt8_Rb_treeIcSt4pairIKciESt10_Select1stIS2_ESt4lessIcESaIS2_EE12_M_drop_nodeEPSt13_Rb_tree_nodeIS2_E, @function
_ZNSt8_Rb_treeIcSt4pairIKciESt10_Select1stIS2_ESt4lessIcESaIS2_EE12_M_drop_nodeEPSt13_Rb_tree_nodeIS2_E:
.LFB2686:
	.cfi_startproc
	pushq	%rbp
	.cfi_def_cfa_offset 16
	.cfi_offset 6, -16
	movq	%rsp, %rbp
	.cfi_def_cfa_register 6
	subq	$16, %rsp
	movq	%rdi, -8(%rbp)
	movq	%rsi, -16(%rbp)
	movq	-16(%rbp), %rdx
	movq	-8(%rbp), %rax
	movq	%rdx, %rsi
	movq	%rax, %rdi
	call	_ZNSt8_Rb_treeIcSt4pairIKciESt10_Select1stIS2_ESt4lessIcESaIS2_EE15_M_destroy_nodeEPSt13_Rb_tree_nodeIS2_E
	movq	-16(%rbp), %rdx
	movq	-8(%rbp), %rax
	movq	%rdx, %rsi
	movq	%rax, %rdi
	call	_ZNSt8_Rb_treeIcSt4pairIKciESt10_Select1stIS2_ESt4lessIcESaIS2_EE11_M_put_nodeEPSt13_Rb_tree_nodeIS2_E
	nop
	leave
	.cfi_def_cfa 7, 8
	ret
	.cfi_endproc
.LFE2686:
	.size	_ZNSt8_Rb_treeIcSt4pairIKciESt10_Select1stIS2_ESt4lessIcESaIS2_EE12_M_drop_nodeEPSt13_Rb_tree_nodeIS2_E, .-_ZNSt8_Rb_treeIcSt4pairIKciESt10_Select1stIS2_ESt4lessIcESaIS2_EE12_M_drop_nodeEPSt13_Rb_tree_nodeIS2_E
	.section	.text._ZNSt8_Rb_treeIcSt4pairIKciESt10_Select1stIS2_ESt4lessIcESaIS2_EE11lower_boundERS1_,"axG",@progbits,_ZNSt8_Rb_treeIcSt4pairIKciESt10_Select1stIS2_ESt4lessIcESaIS2_EE11lower_boundERS1_,comdat
	.align 2
	.weak	_ZNSt8_Rb_treeIcSt4pairIKciESt10_Select1stIS2_ESt4lessIcESaIS2_EE11lower_boundERS1_
	.type	_ZNSt8_Rb_treeIcSt4pairIKciESt10_Select1stIS2_ESt4lessIcESaIS2_EE11lower_boundERS1_, @function
_ZNSt8_Rb_treeIcSt4pairIKciESt10_Select1stIS2_ESt4lessIcESaIS2_EE11lower_boundERS1_:
.LFB2687:
	.cfi_startproc
	pushq	%rbp
	.cfi_def_cfa_offset 16
	.cfi_offset 6, -16
	movq	%rsp, %rbp
	.cfi_def_cfa_register 6
	pushq	%rbx
	subq	$24, %rsp
	.cfi_offset 3, -24
	movq	%rdi, -24(%rbp)
	movq	%rsi, -32(%rbp)
	movq	-24(%rbp), %rax
	movq	%rax, %rdi
	call	_ZNSt8_Rb_treeIcSt4pairIKciESt10_Select1stIS2_ESt4lessIcESaIS2_EE6_M_endEv
	movq	%rax, %rbx
	movq	-24(%rbp), %rax
	movq	%rax, %rdi
	call	_ZNSt8_Rb_treeIcSt4pairIKciESt10_Select1stIS2_ESt4lessIcESaIS2_EE8_M_beginEv
	movq	%rax, %rsi
	movq	-32(%rbp), %rdx
	movq	-24(%rbp), %rax
	movq	%rdx, %rcx
	movq	%rbx, %rdx
	movq	%rax, %rdi
	call	_ZNSt8_Rb_treeIcSt4pairIKciESt10_Select1stIS2_ESt4lessIcESaIS2_EE14_M_lower_boundEPSt13_Rb_tree_nodeIS2_EPSt18_Rb_tree_node_baseRS1_
	addq	$24, %rsp
	popq	%rbx
	popq	%rbp
	.cfi_def_cfa 7, 8
	ret
	.cfi_endproc
.LFE2687:
	.size	_ZNSt8_Rb_treeIcSt4pairIKciESt10_Select1stIS2_ESt4lessIcESaIS2_EE11lower_boundERS1_, .-_ZNSt8_Rb_treeIcSt4pairIKciESt10_Select1stIS2_ESt4lessIcESaIS2_EE11lower_boundERS1_
	.section	.text._ZNKSt8_Rb_treeIcSt4pairIKciESt10_Select1stIS2_ESt4lessIcESaIS2_EE8key_compEv,"axG",@progbits,_ZNKSt8_Rb_treeIcSt4pairIKciESt10_Select1stIS2_ESt4lessIcESaIS2_EE8key_compEv,comdat
	.align 2
	.weak	_ZNKSt8_Rb_treeIcSt4pairIKciESt10_Select1stIS2_ESt4lessIcESaIS2_EE8key_compEv
	.type	_ZNKSt8_Rb_treeIcSt4pairIKciESt10_Select1stIS2_ESt4lessIcESaIS2_EE8key_compEv, @function
_ZNKSt8_Rb_treeIcSt4pairIKciESt10_Select1stIS2_ESt4lessIcESaIS2_EE8key_compEv:
.LFB2688:
	.cfi_startproc
	pushq	%rbp
	.cfi_def_cfa_offset 16
	.cfi_offset 6, -16
	movq	%rsp, %rbp
	.cfi_def_cfa_register 6
	movq	%rdi, -8(%rbp)
	popq	%rbp
	.cfi_def_cfa 7, 8
	ret
	.cfi_endproc
.LFE2688:
	.size	_ZNKSt8_Rb_treeIcSt4pairIKciESt10_Select1stIS2_ESt4lessIcESaIS2_EE8key_compEv, .-_ZNKSt8_Rb_treeIcSt4pairIKciESt10_Select1stIS2_ESt4lessIcESaIS2_EE8key_compEv
	.section	.text._ZNSt8_Rb_treeIcSt4pairIKciESt10_Select1stIS2_ESt4lessIcESaIS2_EE14_M_create_nodeIJRKSt21piecewise_construct_tSt5tupleIJOcEESD_IJEEEEEPSt13_Rb_tree_nodeIS2_EDpOT_,"axG",@progbits,_ZNSt8_Rb_treeIcSt4pairIKciESt10_Select1stIS2_ESt4lessIcESaIS2_EE14_M_create_nodeIJRKSt21piecewise_construct_tSt5tupleIJOcEESD_IJEEEEEPSt13_Rb_tree_nodeIS2_EDpOT_,comdat
	.align 2
	.weak	_ZNSt8_Rb_treeIcSt4pairIKciESt10_Select1stIS2_ESt4lessIcESaIS2_EE14_M_create_nodeIJRKSt21piecewise_construct_tSt5tupleIJOcEESD_IJEEEEEPSt13_Rb_tree_nodeIS2_EDpOT_
	.type	_ZNSt8_Rb_treeIcSt4pairIKciESt10_Select1stIS2_ESt4lessIcESaIS2_EE14_M_create_nodeIJRKSt21piecewise_construct_tSt5tupleIJOcEESD_IJEEEEEPSt13_Rb_tree_nodeIS2_EDpOT_, @function
_ZNSt8_Rb_treeIcSt4pairIKciESt10_Select1stIS2_ESt4lessIcESaIS2_EE14_M_create_nodeIJRKSt21piecewise_construct_tSt5tupleIJOcEESD_IJEEEEEPSt13_Rb_tree_nodeIS2_EDpOT_:
.LFB2689:
	.cfi_startproc
	pushq	%rbp
	.cfi_def_cfa_offset 16
	.cfi_offset 6, -16
	movq	%rsp, %rbp
	.cfi_def_cfa_register 6
	pushq	%r12
	pushq	%rbx
	subq	$48, %rsp
	.cfi_offset 12, -24
	.cfi_offset 3, -32
	movq	%rdi, -40(%rbp)
	movq	%rsi, -48(%rbp)
	movq	%rdx, -56(%rbp)
	movq	%rcx, -64(%rbp)
	movq	-40(%rbp), %rax
	movq	%rax, %rdi
	call	_ZNSt8_Rb_treeIcSt4pairIKciESt10_Select1stIS2_ESt4lessIcESaIS2_EE11_M_get_nodeEv
	movq	%rax, -24(%rbp)
	movq	-64(%rbp), %rax
	movq	%rax, %rdi
	call	_ZSt7forwardISt5tupleIJEEEOT_RNSt16remove_referenceIS2_E4typeE
	movq	%rax, %r12
	movq	-56(%rbp), %rax
	movq	%rax, %rdi
	call	_ZSt7forwardISt5tupleIJOcEEEOT_RNSt16remove_referenceIS3_E4typeE
	movq	%rax, %rbx
	movq	-48(%rbp), %rax
	movq	%rax, %rdi
	call	_ZSt7forwardIRKSt21piecewise_construct_tEOT_RNSt16remove_referenceIS3_E4typeE
	movq	%rax, %rdx
	movq	-24(%rbp), %rsi
	movq	-40(%rbp), %rax
	movq	%r12, %r8
	movq	%rbx, %rcx
	movq	%rax, %rdi
	call	_ZNSt8_Rb_treeIcSt4pairIKciESt10_Select1stIS2_ESt4lessIcESaIS2_EE17_M_construct_nodeIJRKSt21piecewise_construct_tSt5tupleIJOcEESD_IJEEEEEvPSt13_Rb_tree_nodeIS2_EDpOT_
	movq	-24(%rbp), %rax
	addq	$48, %rsp
	popq	%rbx
	popq	%r12
	popq	%rbp
	.cfi_def_cfa 7, 8
	ret
	.cfi_endproc
.LFE2689:
	.size	_ZNSt8_Rb_treeIcSt4pairIKciESt10_Select1stIS2_ESt4lessIcESaIS2_EE14_M_create_nodeIJRKSt21piecewise_construct_tSt5tupleIJOcEESD_IJEEEEEPSt13_Rb_tree_nodeIS2_EDpOT_, .-_ZNSt8_Rb_treeIcSt4pairIKciESt10_Select1stIS2_ESt4lessIcESaIS2_EE14_M_create_nodeIJRKSt21piecewise_construct_tSt5tupleIJOcEESD_IJEEEEEPSt13_Rb_tree_nodeIS2_EDpOT_
	.section	.text._ZNSt4pairIPSt18_Rb_tree_node_baseS1_EC2IRS1_Lb1EEERKS1_OT_,"axG",@progbits,_ZNSt4pairIPSt18_Rb_tree_node_baseS1_EC5IRS1_Lb1EEERKS1_OT_,comdat
	.align 2
	.weak	_ZNSt4pairIPSt18_Rb_tree_node_baseS1_EC2IRS1_Lb1EEERKS1_OT_
	.type	_ZNSt4pairIPSt18_Rb_tree_node_baseS1_EC2IRS1_Lb1EEERKS1_OT_, @function
_ZNSt4pairIPSt18_Rb_tree_node_baseS1_EC2IRS1_Lb1EEERKS1_OT_:
.LFB2704:
	.cfi_startproc
	pushq	%rbp
	.cfi_def_cfa_offset 16
	.cfi_offset 6, -16
	movq	%rsp, %rbp
	.cfi_def_cfa_register 6
	subq	$32, %rsp
	movq	%rdi, -8(%rbp)
	movq	%rsi, -16(%rbp)
	movq	%rdx, -24(%rbp)
	movq	-16(%rbp), %rax
	movq	(%rax), %rdx
	movq	-8(%rbp), %rax
	movq	%rdx, (%rax)
	movq	-24(%rbp), %rax
	movq	%rax, %rdi
	call	_ZSt7forwardIRPSt18_Rb_tree_node_baseEOT_RNSt16remove_referenceIS3_E4typeE
	movq	(%rax), %rdx
	movq	-8(%rbp), %rax
	movq	%rdx, 8(%rax)
	nop
	leave
	.cfi_def_cfa 7, 8
	ret
	.cfi_endproc
.LFE2704:
	.size	_ZNSt4pairIPSt18_Rb_tree_node_baseS1_EC2IRS1_Lb1EEERKS1_OT_, .-_ZNSt4pairIPSt18_Rb_tree_node_baseS1_EC2IRS1_Lb1EEERKS1_OT_
	.weak	_ZNSt4pairIPSt18_Rb_tree_node_baseS1_EC1IRS1_Lb1EEERKS1_OT_
	.set	_ZNSt4pairIPSt18_Rb_tree_node_baseS1_EC1IRS1_Lb1EEERKS1_OT_,_ZNSt4pairIPSt18_Rb_tree_node_baseS1_EC2IRS1_Lb1EEERKS1_OT_
	.section	.text._ZSt7forwardIRPSt18_Rb_tree_node_baseEOT_RNSt16remove_referenceIS3_E4typeE,"axG",@progbits,_ZSt7forwardIRPSt18_Rb_tree_node_baseEOT_RNSt16remove_referenceIS3_E4typeE,comdat
	.weak	_ZSt7forwardIRPSt18_Rb_tree_node_baseEOT_RNSt16remove_referenceIS3_E4typeE
	.type	_ZSt7forwardIRPSt18_Rb_tree_node_baseEOT_RNSt16remove_referenceIS3_E4typeE, @function
_ZSt7forwardIRPSt18_Rb_tree_node_baseEOT_RNSt16remove_referenceIS3_E4typeE:
.LFB2706:
	.cfi_startproc
	pushq	%rbp
	.cfi_def_cfa_offset 16
	.cfi_offset 6, -16
	movq	%rsp, %rbp
	.cfi_def_cfa_register 6
	movq	%rdi, -8(%rbp)
	movq	-8(%rbp), %rax
	popq	%rbp
	.cfi_def_cfa 7, 8
	ret
	.cfi_endproc
.LFE2706:
	.size	_ZSt7forwardIRPSt18_Rb_tree_node_baseEOT_RNSt16remove_referenceIS3_E4typeE, .-_ZSt7forwardIRPSt18_Rb_tree_node_baseEOT_RNSt16remove_referenceIS3_E4typeE
	.section	.text._ZNSt4pairIPSt18_Rb_tree_node_baseS1_EC2IRS1_S4_Lb1EEEOT_OT0_,"axG",@progbits,_ZNSt4pairIPSt18_Rb_tree_node_baseS1_EC5IRS1_S4_Lb1EEEOT_OT0_,comdat
	.align 2
	.weak	_ZNSt4pairIPSt18_Rb_tree_node_baseS1_EC2IRS1_S4_Lb1EEEOT_OT0_
	.type	_ZNSt4pairIPSt18_Rb_tree_node_baseS1_EC2IRS1_S4_Lb1EEEOT_OT0_, @function
_ZNSt4pairIPSt18_Rb_tree_node_baseS1_EC2IRS1_S4_Lb1EEEOT_OT0_:
.LFB2708:
	.cfi_startproc
	pushq	%rbp
	.cfi_def_cfa_offset 16
	.cfi_offset 6, -16
	movq	%rsp, %rbp
	.cfi_def_cfa_register 6
	subq	$32, %rsp
	movq	%rdi, -8(%rbp)
	movq	%rsi, -16(%rbp)
	movq	%rdx, -24(%rbp)
	movq	-16(%rbp), %rax
	movq	%rax, %rdi
	call	_ZSt7forwardIRPSt18_Rb_tree_node_baseEOT_RNSt16remove_referenceIS3_E4typeE
	movq	(%rax), %rdx
	movq	-8(%rbp), %rax
	movq	%rdx, (%rax)
	movq	-24(%rbp), %rax
	movq	%rax, %rdi
	call	_ZSt7forwardIRPSt18_Rb_tree_node_baseEOT_RNSt16remove_referenceIS3_E4typeE
	movq	(%rax), %rdx
	movq	-8(%rbp), %rax
	movq	%rdx, 8(%rax)
	nop
	leave
	.cfi_def_cfa 7, 8
	ret
	.cfi_endproc
.LFE2708:
	.size	_ZNSt4pairIPSt18_Rb_tree_node_baseS1_EC2IRS1_S4_Lb1EEEOT_OT0_, .-_ZNSt4pairIPSt18_Rb_tree_node_baseS1_EC2IRS1_S4_Lb1EEEOT_OT0_
	.weak	_ZNSt4pairIPSt18_Rb_tree_node_baseS1_EC1IRS1_S4_Lb1EEEOT_OT0_
	.set	_ZNSt4pairIPSt18_Rb_tree_node_baseS1_EC1IRS1_S4_Lb1EEEOT_OT0_,_ZNSt4pairIPSt18_Rb_tree_node_baseS1_EC2IRS1_S4_Lb1EEEOT_OT0_
	.section	.text._ZNSt4pairIPSt18_Rb_tree_node_baseS1_EC2IRS1_Lb1EEEOT_RKS1_,"axG",@progbits,_ZNSt4pairIPSt18_Rb_tree_node_baseS1_EC5IRS1_Lb1EEEOT_RKS1_,comdat
	.align 2
	.weak	_ZNSt4pairIPSt18_Rb_tree_node_baseS1_EC2IRS1_Lb1EEEOT_RKS1_
	.type	_ZNSt4pairIPSt18_Rb_tree_node_baseS1_EC2IRS1_Lb1EEEOT_RKS1_, @function
_ZNSt4pairIPSt18_Rb_tree_node_baseS1_EC2IRS1_Lb1EEEOT_RKS1_:
.LFB2715:
	.cfi_startproc
	pushq	%rbp
	.cfi_def_cfa_offset 16
	.cfi_offset 6, -16
	movq	%rsp, %rbp
	.cfi_def_cfa_register 6
	subq	$32, %rsp
	movq	%rdi, -8(%rbp)
	movq	%rsi, -16(%rbp)
	movq	%rdx, -24(%rbp)
	movq	-16(%rbp), %rax
	movq	%rax, %rdi
	call	_ZSt7forwardIRPSt18_Rb_tree_node_baseEOT_RNSt16remove_referenceIS3_E4typeE
	movq	(%rax), %rdx
	movq	-8(%rbp), %rax
	movq	%rdx, (%rax)
	movq	-24(%rbp), %rax
	movq	(%rax), %rdx
	movq	-8(%rbp), %rax
	movq	%rdx, 8(%rax)
	nop
	leave
	.cfi_def_cfa 7, 8
	ret
	.cfi_endproc
.LFE2715:
	.size	_ZNSt4pairIPSt18_Rb_tree_node_baseS1_EC2IRS1_Lb1EEEOT_RKS1_, .-_ZNSt4pairIPSt18_Rb_tree_node_baseS1_EC2IRS1_Lb1EEEOT_RKS1_
	.weak	_ZNSt4pairIPSt18_Rb_tree_node_baseS1_EC1IRS1_Lb1EEEOT_RKS1_
	.set	_ZNSt4pairIPSt18_Rb_tree_node_baseS1_EC1IRS1_Lb1EEEOT_RKS1_,_ZNSt4pairIPSt18_Rb_tree_node_baseS1_EC2IRS1_Lb1EEEOT_RKS1_
	.section	.text._ZNSt8_Rb_treeIcSt4pairIKciESt10_Select1stIS2_ESt4lessIcESaIS2_EE29_M_get_insert_hint_unique_posESt23_Rb_tree_const_iteratorIS2_ERS1_,"axG",@progbits,_ZNSt8_Rb_treeIcSt4pairIKciESt10_Select1stIS2_ESt4lessIcESaIS2_EE29_M_get_insert_hint_unique_posESt23_Rb_tree_const_iteratorIS2_ERS1_,comdat
	.align 2
	.weak	_ZNSt8_Rb_treeIcSt4pairIKciESt10_Select1stIS2_ESt4lessIcESaIS2_EE29_M_get_insert_hint_unique_posESt23_Rb_tree_const_iteratorIS2_ERS1_
	.type	_ZNSt8_Rb_treeIcSt4pairIKciESt10_Select1stIS2_ESt4lessIcESaIS2_EE29_M_get_insert_hint_unique_posESt23_Rb_tree_const_iteratorIS2_ERS1_, @function
_ZNSt8_Rb_treeIcSt4pairIKciESt10_Select1stIS2_ESt4lessIcESaIS2_EE29_M_get_insert_hint_unique_posESt23_Rb_tree_const_iteratorIS2_ERS1_:
.LFB2690:
	.cfi_startproc
	pushq	%rbp
	.cfi_def_cfa_offset 16
	.cfi_offset 6, -16
	movq	%rsp, %rbp
	.cfi_def_cfa_register 6
	pushq	%rbx
	subq	$104, %rsp
	.cfi_offset 3, -24
	movq	%rdi, -88(%rbp)
	movq	%rsi, -96(%rbp)
	movq	%rdx, -104(%rbp)
	movq	%fs:40, %rax
	movq	%rax, -24(%rbp)
	xorl	%eax, %eax
	leaq	-96(%rbp), %rax
	movq	%rax, %rdi
	call	_ZNKSt23_Rb_tree_const_iteratorISt4pairIKciEE13_M_const_castEv
	movq	%rax, -72(%rbp)
	movq	-72(%rbp), %rbx
	movq	-88(%rbp), %rax
	movq	%rax, %rdi
	call	_ZNSt8_Rb_treeIcSt4pairIKciESt10_Select1stIS2_ESt4lessIcESaIS2_EE6_M_endEv
	cmpq	%rax, %rbx
	sete	%al
	testb	%al, %al
	je	.L217
	movq	-88(%rbp), %rax
	movq	%rax, %rdi
	call	_ZNKSt8_Rb_treeIcSt4pairIKciESt10_Select1stIS2_ESt4lessIcESaIS2_EE4sizeEv
	testq	%rax, %rax
	je	.L218
	movq	-88(%rbp), %rbx
	movq	-88(%rbp), %rax
	movq	%rax, %rdi
	call	_ZNSt8_Rb_treeIcSt4pairIKciESt10_Select1stIS2_ESt4lessIcESaIS2_EE12_M_rightmostEv
	movq	(%rax), %rax
	movq	%rax, %rdi
	call	_ZNSt8_Rb_treeIcSt4pairIKciESt10_Select1stIS2_ESt4lessIcESaIS2_EE6_S_keyEPKSt18_Rb_tree_node_base
	movq	%rax, %rcx
	movq	-104(%rbp), %rax
	movq	%rax, %rdx
	movq	%rcx, %rsi
	movq	%rbx, %rdi
	call	_ZNKSt4lessIcEclERKcS2_
	testb	%al, %al
	je	.L218
	movl	$1, %eax
	jmp	.L219
.L218:
	movl	$0, %eax
.L219:
	testb	%al, %al
	je	.L220
	movq	-88(%rbp), %rax
	movq	%rax, %rdi
	call	_ZNSt8_Rb_treeIcSt4pairIKciESt10_Select1stIS2_ESt4lessIcESaIS2_EE12_M_rightmostEv
	movq	%rax, %rdx
	movq	$0, -56(%rbp)
	leaq	-56(%rbp), %rcx
	leaq	-48(%rbp), %rax
	movq	%rcx, %rsi
	movq	%rax, %rdi
	call	_ZNSt4pairIPSt18_Rb_tree_node_baseS1_EC1IRS1_Lb1EEERKS1_OT_
	movq	-48(%rbp), %rax
	movq	-40(%rbp), %rdx
	jmp	.L232
.L220:
	movq	-104(%rbp), %rdx
	movq	-88(%rbp), %rax
	movq	%rdx, %rsi
	movq	%rax, %rdi
	call	_ZNSt8_Rb_treeIcSt4pairIKciESt10_Select1stIS2_ESt4lessIcESaIS2_EE24_M_get_insert_unique_posERS1_
	jmp	.L232
.L217:
	movq	-88(%rbp), %rbx
	movq	-72(%rbp), %rax
	movq	%rax, %rdi
	call	_ZNSt8_Rb_treeIcSt4pairIKciESt10_Select1stIS2_ESt4lessIcESaIS2_EE6_S_keyEPKSt18_Rb_tree_node_base
	movq	%rax, %rdx
	movq	-104(%rbp), %rax
	movq	%rax, %rsi
	movq	%rbx, %rdi
	call	_ZNKSt4lessIcEclERKcS2_
	testb	%al, %al
	je	.L222
	movq	-72(%rbp), %rax
	movq	%rax, -64(%rbp)
	movq	-72(%rbp), %rbx
	movq	-88(%rbp), %rax
	movq	%rax, %rdi
	call	_ZNSt8_Rb_treeIcSt4pairIKciESt10_Select1stIS2_ESt4lessIcESaIS2_EE11_M_leftmostEv
	movq	(%rax), %rax
	cmpq	%rax, %rbx
	sete	%al
	testb	%al, %al
	je	.L223
	movq	-88(%rbp), %rax
	movq	%rax, %rdi
	call	_ZNSt8_Rb_treeIcSt4pairIKciESt10_Select1stIS2_ESt4lessIcESaIS2_EE11_M_leftmostEv
	movq	%rax, %rbx
	movq	-88(%rbp), %rax
	movq	%rax, %rdi
	call	_ZNSt8_Rb_treeIcSt4pairIKciESt10_Select1stIS2_ESt4lessIcESaIS2_EE11_M_leftmostEv
	movq	%rax, %rcx
	leaq	-48(%rbp), %rax
	movq	%rbx, %rdx
	movq	%rcx, %rsi
	movq	%rax, %rdi
	call	_ZNSt4pairIPSt18_Rb_tree_node_baseS1_EC1IRS1_S4_Lb1EEEOT_OT0_
	movq	-48(%rbp), %rax
	movq	-40(%rbp), %rdx
	jmp	.L232
.L223:
	movq	-88(%rbp), %rbx
	leaq	-64(%rbp), %rax
	movq	%rax, %rdi
	call	_ZNSt17_Rb_tree_iteratorISt4pairIKciEEmmEv
	movq	(%rax), %rax
	movq	%rax, %rdi
	call	_ZNSt8_Rb_treeIcSt4pairIKciESt10_Select1stIS2_ESt4lessIcESaIS2_EE6_S_keyEPKSt18_Rb_tree_node_base
	movq	%rax, %rcx
	movq	-104(%rbp), %rax
	movq	%rax, %rdx
	movq	%rcx, %rsi
	movq	%rbx, %rdi
	call	_ZNKSt4lessIcEclERKcS2_
	testb	%al, %al
	je	.L225
	movq	-64(%rbp), %rax
	movq	%rax, %rdi
	call	_ZNSt8_Rb_treeIcSt4pairIKciESt10_Select1stIS2_ESt4lessIcESaIS2_EE8_S_rightEPSt18_Rb_tree_node_base
	testq	%rax, %rax
	sete	%al
	testb	%al, %al
	je	.L226
	movq	$0, -56(%rbp)
	leaq	-64(%rbp), %rdx
	leaq	-56(%rbp), %rcx
	leaq	-48(%rbp), %rax
	movq	%rcx, %rsi
	movq	%rax, %rdi
	call	_ZNSt4pairIPSt18_Rb_tree_node_baseS1_EC1IRS1_Lb1EEERKS1_OT_
	movq	-48(%rbp), %rax
	movq	-40(%rbp), %rdx
	jmp	.L232
.L226:
	leaq	-72(%rbp), %rdx
	leaq	-72(%rbp), %rcx
	leaq	-48(%rbp), %rax
	movq	%rcx, %rsi
	movq	%rax, %rdi
	call	_ZNSt4pairIPSt18_Rb_tree_node_baseS1_EC1IRS1_S4_Lb1EEEOT_OT0_
	movq	-48(%rbp), %rax
	movq	-40(%rbp), %rdx
	jmp	.L232
.L225:
	movq	-104(%rbp), %rdx
	movq	-88(%rbp), %rax
	movq	%rdx, %rsi
	movq	%rax, %rdi
	call	_ZNSt8_Rb_treeIcSt4pairIKciESt10_Select1stIS2_ESt4lessIcESaIS2_EE24_M_get_insert_unique_posERS1_
	jmp	.L232
.L222:
	movq	-88(%rbp), %rbx
	movq	-72(%rbp), %rax
	movq	%rax, %rdi
	call	_ZNSt8_Rb_treeIcSt4pairIKciESt10_Select1stIS2_ESt4lessIcESaIS2_EE6_S_keyEPKSt18_Rb_tree_node_base
	movq	%rax, %rcx
	movq	-104(%rbp), %rax
	movq	%rax, %rdx
	movq	%rcx, %rsi
	movq	%rbx, %rdi
	call	_ZNKSt4lessIcEclERKcS2_
	testb	%al, %al
	je	.L227
	movq	-72(%rbp), %rax
	movq	%rax, -64(%rbp)
	movq	-72(%rbp), %rbx
	movq	-88(%rbp), %rax
	movq	%rax, %rdi
	call	_ZNSt8_Rb_treeIcSt4pairIKciESt10_Select1stIS2_ESt4lessIcESaIS2_EE12_M_rightmostEv
	movq	(%rax), %rax
	cmpq	%rax, %rbx
	sete	%al
	testb	%al, %al
	je	.L228
	movq	-88(%rbp), %rax
	movq	%rax, %rdi
	call	_ZNSt8_Rb_treeIcSt4pairIKciESt10_Select1stIS2_ESt4lessIcESaIS2_EE12_M_rightmostEv
	movq	%rax, %rdx
	movq	$0, -56(%rbp)
	leaq	-56(%rbp), %rcx
	leaq	-48(%rbp), %rax
	movq	%rcx, %rsi
	movq	%rax, %rdi
	call	_ZNSt4pairIPSt18_Rb_tree_node_baseS1_EC1IRS1_Lb1EEERKS1_OT_
	movq	-48(%rbp), %rax
	movq	-40(%rbp), %rdx
	jmp	.L232
.L228:
	movq	-88(%rbp), %rbx
	leaq	-64(%rbp), %rax
	movq	%rax, %rdi
	call	_ZNSt17_Rb_tree_iteratorISt4pairIKciEEppEv
	movq	(%rax), %rax
	movq	%rax, %rdi
	call	_ZNSt8_Rb_treeIcSt4pairIKciESt10_Select1stIS2_ESt4lessIcESaIS2_EE6_S_keyEPKSt18_Rb_tree_node_base
	movq	%rax, %rdx
	movq	-104(%rbp), %rax
	movq	%rax, %rsi
	movq	%rbx, %rdi
	call	_ZNKSt4lessIcEclERKcS2_
	testb	%al, %al
	je	.L230
	movq	-72(%rbp), %rax
	movq	%rax, %rdi
	call	_ZNSt8_Rb_treeIcSt4pairIKciESt10_Select1stIS2_ESt4lessIcESaIS2_EE8_S_rightEPSt18_Rb_tree_node_base
	testq	%rax, %rax
	sete	%al
	testb	%al, %al
	je	.L231
	movq	$0, -56(%rbp)
	leaq	-72(%rbp), %rdx
	leaq	-56(%rbp), %rcx
	leaq	-48(%rbp), %rax
	movq	%rcx, %rsi
	movq	%rax, %rdi
	call	_ZNSt4pairIPSt18_Rb_tree_node_baseS1_EC1IRS1_Lb1EEERKS1_OT_
	movq	-48(%rbp), %rax
	movq	-40(%rbp), %rdx
	jmp	.L232
.L231:
	leaq	-64(%rbp), %rdx
	leaq	-64(%rbp), %rcx
	leaq	-48(%rbp), %rax
	movq	%rcx, %rsi
	movq	%rax, %rdi
	call	_ZNSt4pairIPSt18_Rb_tree_node_baseS1_EC1IRS1_S4_Lb1EEEOT_OT0_
	movq	-48(%rbp), %rax
	movq	-40(%rbp), %rdx
	jmp	.L232
.L230:
	movq	-104(%rbp), %rdx
	movq	-88(%rbp), %rax
	movq	%rdx, %rsi
	movq	%rax, %rdi
	call	_ZNSt8_Rb_treeIcSt4pairIKciESt10_Select1stIS2_ESt4lessIcESaIS2_EE24_M_get_insert_unique_posERS1_
	jmp	.L232
.L227:
	movq	$0, -56(%rbp)
	leaq	-56(%rbp), %rdx
	leaq	-72(%rbp), %rcx
	leaq	-48(%rbp), %rax
	movq	%rcx, %rsi
	movq	%rax, %rdi
	call	_ZNSt4pairIPSt18_Rb_tree_node_baseS1_EC1IRS1_Lb1EEEOT_RKS1_
	movq	-48(%rbp), %rax
	movq	-40(%rbp), %rdx
.L232:
	movq	-24(%rbp), %rsi
	xorq	%fs:40, %rsi
	je	.L233
	call	__stack_chk_fail@PLT
.L233:
	addq	$104, %rsp
	popq	%rbx
	popq	%rbp
	.cfi_def_cfa 7, 8
	ret
	.cfi_endproc
.LFE2690:
	.size	_ZNSt8_Rb_treeIcSt4pairIKciESt10_Select1stIS2_ESt4lessIcESaIS2_EE29_M_get_insert_hint_unique_posESt23_Rb_tree_const_iteratorIS2_ERS1_, .-_ZNSt8_Rb_treeIcSt4pairIKciESt10_Select1stIS2_ESt4lessIcESaIS2_EE29_M_get_insert_hint_unique_posESt23_Rb_tree_const_iteratorIS2_ERS1_
	.section	.text._ZNSt8_Rb_treeIcSt4pairIKciESt10_Select1stIS2_ESt4lessIcESaIS2_EE6_S_keyEPKSt13_Rb_tree_nodeIS2_E,"axG",@progbits,_ZNSt8_Rb_treeIcSt4pairIKciESt10_Select1stIS2_ESt4lessIcESaIS2_EE6_S_keyEPKSt13_Rb_tree_nodeIS2_E,comdat
	.weak	_ZNSt8_Rb_treeIcSt4pairIKciESt10_Select1stIS2_ESt4lessIcESaIS2_EE6_S_keyEPKSt13_Rb_tree_nodeIS2_E
	.type	_ZNSt8_Rb_treeIcSt4pairIKciESt10_Select1stIS2_ESt4lessIcESaIS2_EE6_S_keyEPKSt13_Rb_tree_nodeIS2_E, @function
_ZNSt8_Rb_treeIcSt4pairIKciESt10_Select1stIS2_ESt4lessIcESaIS2_EE6_S_keyEPKSt13_Rb_tree_nodeIS2_E:
.LFB2717:
	.cfi_startproc
	pushq	%rbp
	.cfi_def_cfa_offset 16
	.cfi_offset 6, -16
	movq	%rsp, %rbp
	.cfi_def_cfa_register 6
	subq	$32, %rsp
	movq	%rdi, -24(%rbp)
	movq	%fs:40, %rax
	movq	%rax, -8(%rbp)
	xorl	%eax, %eax
	movq	-24(%rbp), %rax
	movq	%rax, %rdi
	call	_ZNSt8_Rb_treeIcSt4pairIKciESt10_Select1stIS2_ESt4lessIcESaIS2_EE8_S_valueEPKSt13_Rb_tree_nodeIS2_E
	movq	%rax, %rdx
	leaq	-9(%rbp), %rax
	movq	%rdx, %rsi
	movq	%rax, %rdi
	call	_ZNKSt10_Select1stISt4pairIKciEEclERKS2_
	nop
	movq	-8(%rbp), %rcx
	xorq	%fs:40, %rcx
	je	.L236
	call	__stack_chk_fail@PLT
.L236:
	leave
	.cfi_def_cfa 7, 8
	ret
	.cfi_endproc
.LFE2717:
	.size	_ZNSt8_Rb_treeIcSt4pairIKciESt10_Select1stIS2_ESt4lessIcESaIS2_EE6_S_keyEPKSt13_Rb_tree_nodeIS2_E, .-_ZNSt8_Rb_treeIcSt4pairIKciESt10_Select1stIS2_ESt4lessIcESaIS2_EE6_S_keyEPKSt13_Rb_tree_nodeIS2_E
	.section	.text._ZNSt8_Rb_treeIcSt4pairIKciESt10_Select1stIS2_ESt4lessIcESaIS2_EE14_M_insert_nodeEPSt18_Rb_tree_node_baseSA_PSt13_Rb_tree_nodeIS2_E,"axG",@progbits,_ZNSt8_Rb_treeIcSt4pairIKciESt10_Select1stIS2_ESt4lessIcESaIS2_EE14_M_insert_nodeEPSt18_Rb_tree_node_baseSA_PSt13_Rb_tree_nodeIS2_E,comdat
	.align 2
	.weak	_ZNSt8_Rb_treeIcSt4pairIKciESt10_Select1stIS2_ESt4lessIcESaIS2_EE14_M_insert_nodeEPSt18_Rb_tree_node_baseSA_PSt13_Rb_tree_nodeIS2_E
	.type	_ZNSt8_Rb_treeIcSt4pairIKciESt10_Select1stIS2_ESt4lessIcESaIS2_EE14_M_insert_nodeEPSt18_Rb_tree_node_baseSA_PSt13_Rb_tree_nodeIS2_E, @function
_ZNSt8_Rb_treeIcSt4pairIKciESt10_Select1stIS2_ESt4lessIcESaIS2_EE14_M_insert_nodeEPSt18_Rb_tree_node_baseSA_PSt13_Rb_tree_nodeIS2_E:
.LFB2718:
	.cfi_startproc
	pushq	%rbp
	.cfi_def_cfa_offset 16
	.cfi_offset 6, -16
	movq	%rsp, %rbp
	.cfi_def_cfa_register 6
	pushq	%r12
	pushq	%rbx
	subq	$64, %rsp
	.cfi_offset 12, -24
	.cfi_offset 3, -32
	movq	%rdi, -56(%rbp)
	movq	%rsi, -64(%rbp)
	movq	%rdx, -72(%rbp)
	movq	%rcx, -80(%rbp)
	movq	%fs:40, %rax
	movq	%rax, -24(%rbp)
	xorl	%eax, %eax
	cmpq	$0, -64(%rbp)
	jne	.L238
	movq	-56(%rbp), %rax
	movq	%rax, %rdi
	call	_ZNSt8_Rb_treeIcSt4pairIKciESt10_Select1stIS2_ESt4lessIcESaIS2_EE6_M_endEv
	cmpq	%rax, -72(%rbp)
	je	.L238
	movq	-56(%rbp), %rbx
	movq	-72(%rbp), %rax
	movq	%rax, %rdi
	call	_ZNSt8_Rb_treeIcSt4pairIKciESt10_Select1stIS2_ESt4lessIcESaIS2_EE6_S_keyEPKSt18_Rb_tree_node_base
	movq	%rax, %r12
	movq	-80(%rbp), %rax
	movq	%rax, %rdi
	call	_ZNSt8_Rb_treeIcSt4pairIKciESt10_Select1stIS2_ESt4lessIcESaIS2_EE6_S_keyEPKSt13_Rb_tree_nodeIS2_E
	movq	%r12, %rdx
	movq	%rax, %rsi
	movq	%rbx, %rdi
	call	_ZNKSt4lessIcEclERKcS2_
	testb	%al, %al
	je	.L239
.L238:
	movl	$1, %eax
	jmp	.L240
.L239:
	movl	$0, %eax
.L240:
	movb	%al, -33(%rbp)
	movq	-56(%rbp), %rax
	leaq	8(%rax), %rcx
	movzbl	-33(%rbp), %eax
	movq	-72(%rbp), %rdx
	movq	-80(%rbp), %rsi
	movl	%eax, %edi
	call	_ZSt29_Rb_tree_insert_and_rebalancebPSt18_Rb_tree_node_baseS0_RS_@PLT
	movq	-56(%rbp), %rax
	movq	40(%rax), %rax
	leaq	1(%rax), %rdx
	movq	-56(%rbp), %rax
	movq	%rdx, 40(%rax)
	movq	-80(%rbp), %rdx
	leaq	-32(%rbp), %rax
	movq	%rdx, %rsi
	movq	%rax, %rdi
	call	_ZNSt17_Rb_tree_iteratorISt4pairIKciEEC1EPSt18_Rb_tree_node_base
	movq	-32(%rbp), %rax
	movq	-24(%rbp), %rbx
	xorq	%fs:40, %rbx
	je	.L242
	call	__stack_chk_fail@PLT
.L242:
	addq	$64, %rsp
	popq	%rbx
	popq	%r12
	popq	%rbp
	.cfi_def_cfa 7, 8
	ret
	.cfi_endproc
.LFE2718:
	.size	_ZNSt8_Rb_treeIcSt4pairIKciESt10_Select1stIS2_ESt4lessIcESaIS2_EE14_M_insert_nodeEPSt18_Rb_tree_node_baseSA_PSt13_Rb_tree_nodeIS2_E, .-_ZNSt8_Rb_treeIcSt4pairIKciESt10_Select1stIS2_ESt4lessIcESaIS2_EE14_M_insert_nodeEPSt18_Rb_tree_node_baseSA_PSt13_Rb_tree_nodeIS2_E
	.section	.text._ZNSt17_Rb_tree_iteratorISt4pairIKciEEC2EPSt18_Rb_tree_node_base,"axG",@progbits,_ZNSt17_Rb_tree_iteratorISt4pairIKciEEC5EPSt18_Rb_tree_node_base,comdat
	.align 2
	.weak	_ZNSt17_Rb_tree_iteratorISt4pairIKciEEC2EPSt18_Rb_tree_node_base
	.type	_ZNSt17_Rb_tree_iteratorISt4pairIKciEEC2EPSt18_Rb_tree_node_base, @function
_ZNSt17_Rb_tree_iteratorISt4pairIKciEEC2EPSt18_Rb_tree_node_base:
.LFB2720:
	.cfi_startproc
	pushq	%rbp
	.cfi_def_cfa_offset 16
	.cfi_offset 6, -16
	movq	%rsp, %rbp
	.cfi_def_cfa_register 6
	movq	%rdi, -8(%rbp)
	movq	%rsi, -16(%rbp)
	movq	-8(%rbp), %rax
	movq	-16(%rbp), %rdx
	movq	%rdx, (%rax)
	nop
	popq	%rbp
	.cfi_def_cfa 7, 8
	ret
	.cfi_endproc
.LFE2720:
	.size	_ZNSt17_Rb_tree_iteratorISt4pairIKciEEC2EPSt18_Rb_tree_node_base, .-_ZNSt17_Rb_tree_iteratorISt4pairIKciEEC2EPSt18_Rb_tree_node_base
	.weak	_ZNSt17_Rb_tree_iteratorISt4pairIKciEEC1EPSt18_Rb_tree_node_base
	.set	_ZNSt17_Rb_tree_iteratorISt4pairIKciEEC1EPSt18_Rb_tree_node_base,_ZNSt17_Rb_tree_iteratorISt4pairIKciEEC2EPSt18_Rb_tree_node_base
	.section	.text._ZNSt8_Rb_treeIcSt4pairIKciESt10_Select1stIS2_ESt4lessIcESaIS2_EE6_M_endEv,"axG",@progbits,_ZNSt8_Rb_treeIcSt4pairIKciESt10_Select1stIS2_ESt4lessIcESaIS2_EE6_M_endEv,comdat
	.align 2
	.weak	_ZNSt8_Rb_treeIcSt4pairIKciESt10_Select1stIS2_ESt4lessIcESaIS2_EE6_M_endEv
	.type	_ZNSt8_Rb_treeIcSt4pairIKciESt10_Select1stIS2_ESt4lessIcESaIS2_EE6_M_endEv, @function
_ZNSt8_Rb_treeIcSt4pairIKciESt10_Select1stIS2_ESt4lessIcESaIS2_EE6_M_endEv:
.LFB2722:
	.cfi_startproc
	pushq	%rbp
	.cfi_def_cfa_offset 16
	.cfi_offset 6, -16
	movq	%rsp, %rbp
	.cfi_def_cfa_register 6
	movq	%rdi, -8(%rbp)
	movq	-8(%rbp), %rax
	addq	$8, %rax
	popq	%rbp
	.cfi_def_cfa 7, 8
	ret
	.cfi_endproc
.LFE2722:
	.size	_ZNSt8_Rb_treeIcSt4pairIKciESt10_Select1stIS2_ESt4lessIcESaIS2_EE6_M_endEv, .-_ZNSt8_Rb_treeIcSt4pairIKciESt10_Select1stIS2_ESt4lessIcESaIS2_EE6_M_endEv
	.section	.text._ZNSt8_Rb_treeIcSt4pairIKciESt10_Select1stIS2_ESt4lessIcESaIS2_EE14_M_lower_boundEPSt13_Rb_tree_nodeIS2_EPSt18_Rb_tree_node_baseRS1_,"axG",@progbits,_ZNSt8_Rb_treeIcSt4pairIKciESt10_Select1stIS2_ESt4lessIcESaIS2_EE14_M_lower_boundEPSt13_Rb_tree_nodeIS2_EPSt18_Rb_tree_node_baseRS1_,comdat
	.align 2
	.weak	_ZNSt8_Rb_treeIcSt4pairIKciESt10_Select1stIS2_ESt4lessIcESaIS2_EE14_M_lower_boundEPSt13_Rb_tree_nodeIS2_EPSt18_Rb_tree_node_baseRS1_
	.type	_ZNSt8_Rb_treeIcSt4pairIKciESt10_Select1stIS2_ESt4lessIcESaIS2_EE14_M_lower_boundEPSt13_Rb_tree_nodeIS2_EPSt18_Rb_tree_node_baseRS1_, @function
_ZNSt8_Rb_treeIcSt4pairIKciESt10_Select1stIS2_ESt4lessIcESaIS2_EE14_M_lower_boundEPSt13_Rb_tree_nodeIS2_EPSt18_Rb_tree_node_baseRS1_:
.LFB2723:
	.cfi_startproc
	pushq	%rbp
	.cfi_def_cfa_offset 16
	.cfi_offset 6, -16
	movq	%rsp, %rbp
	.cfi_def_cfa_register 6
	pushq	%rbx
	subq	$56, %rsp
	.cfi_offset 3, -24
	movq	%rdi, -40(%rbp)
	movq	%rsi, -48(%rbp)
	movq	%rdx, -56(%rbp)
	movq	%rcx, -64(%rbp)
	movq	%fs:40, %rax
	movq	%rax, -24(%rbp)
	xorl	%eax, %eax
.L250:
	cmpq	$0, -48(%rbp)
	je	.L247
	movq	-40(%rbp), %rbx
	movq	-48(%rbp), %rax
	movq	%rax, %rdi
	call	_ZNSt8_Rb_treeIcSt4pairIKciESt10_Select1stIS2_ESt4lessIcESaIS2_EE6_S_keyEPKSt13_Rb_tree_nodeIS2_E
	movq	%rax, %rcx
	movq	-64(%rbp), %rax
	movq	%rax, %rdx
	movq	%rcx, %rsi
	movq	%rbx, %rdi
	call	_ZNKSt4lessIcEclERKcS2_
	xorl	$1, %eax
	testb	%al, %al
	je	.L248
	movq	-48(%rbp), %rax
	movq	%rax, -56(%rbp)
	movq	-48(%rbp), %rax
	movq	%rax, %rdi
	call	_ZNSt8_Rb_treeIcSt4pairIKciESt10_Select1stIS2_ESt4lessIcESaIS2_EE7_S_leftEPSt18_Rb_tree_node_base
	movq	%rax, -48(%rbp)
	jmp	.L250
.L248:
	movq	-48(%rbp), %rax
	movq	%rax, %rdi
	call	_ZNSt8_Rb_treeIcSt4pairIKciESt10_Select1stIS2_ESt4lessIcESaIS2_EE8_S_rightEPSt18_Rb_tree_node_base
	movq	%rax, -48(%rbp)
	jmp	.L250
.L247:
	movq	-56(%rbp), %rdx
	leaq	-32(%rbp), %rax
	movq	%rdx, %rsi
	movq	%rax, %rdi
	call	_ZNSt17_Rb_tree_iteratorISt4pairIKciEEC1EPSt18_Rb_tree_node_base
	movq	-32(%rbp), %rax
	movq	-24(%rbp), %rbx
	xorq	%fs:40, %rbx
	je	.L252
	call	__stack_chk_fail@PLT
.L252:
	addq	$56, %rsp
	popq	%rbx
	popq	%rbp
	.cfi_def_cfa 7, 8
	ret
	.cfi_endproc
.LFE2723:
	.size	_ZNSt8_Rb_treeIcSt4pairIKciESt10_Select1stIS2_ESt4lessIcESaIS2_EE14_M_lower_boundEPSt13_Rb_tree_nodeIS2_EPSt18_Rb_tree_node_baseRS1_, .-_ZNSt8_Rb_treeIcSt4pairIKciESt10_Select1stIS2_ESt4lessIcESaIS2_EE14_M_lower_boundEPSt13_Rb_tree_nodeIS2_EPSt18_Rb_tree_node_baseRS1_
	.section	.text._ZNSt8_Rb_treeIcSt4pairIKciESt10_Select1stIS2_ESt4lessIcESaIS2_EE6_S_keyEPKSt18_Rb_tree_node_base,"axG",@progbits,_ZNSt8_Rb_treeIcSt4pairIKciESt10_Select1stIS2_ESt4lessIcESaIS2_EE6_S_keyEPKSt18_Rb_tree_node_base,comdat
	.weak	_ZNSt8_Rb_treeIcSt4pairIKciESt10_Select1stIS2_ESt4lessIcESaIS2_EE6_S_keyEPKSt18_Rb_tree_node_base
	.type	_ZNSt8_Rb_treeIcSt4pairIKciESt10_Select1stIS2_ESt4lessIcESaIS2_EE6_S_keyEPKSt18_Rb_tree_node_base, @function
_ZNSt8_Rb_treeIcSt4pairIKciESt10_Select1stIS2_ESt4lessIcESaIS2_EE6_S_keyEPKSt18_Rb_tree_node_base:
.LFB2724:
	.cfi_startproc
	pushq	%rbp
	.cfi_def_cfa_offset 16
	.cfi_offset 6, -16
	movq	%rsp, %rbp
	.cfi_def_cfa_register 6
	subq	$32, %rsp
	movq	%rdi, -24(%rbp)
	movq	%fs:40, %rax
	movq	%rax, -8(%rbp)
	xorl	%eax, %eax
	movq	-24(%rbp), %rax
	movq	%rax, %rdi
	call	_ZNSt8_Rb_treeIcSt4pairIKciESt10_Select1stIS2_ESt4lessIcESaIS2_EE8_S_valueEPKSt18_Rb_tree_node_base
	movq	%rax, %rdx
	leaq	-9(%rbp), %rax
	movq	%rdx, %rsi
	movq	%rax, %rdi
	call	_ZNKSt10_Select1stISt4pairIKciEEclERKS2_
	nop
	movq	-8(%rbp), %rcx
	xorq	%fs:40, %rcx
	je	.L255
	call	__stack_chk_fail@PLT
.L255:
	leave
	.cfi_def_cfa 7, 8
	ret
	.cfi_endproc
.LFE2724:
	.size	_ZNSt8_Rb_treeIcSt4pairIKciESt10_Select1stIS2_ESt4lessIcESaIS2_EE6_S_keyEPKSt18_Rb_tree_node_base, .-_ZNSt8_Rb_treeIcSt4pairIKciESt10_Select1stIS2_ESt4lessIcESaIS2_EE6_S_keyEPKSt18_Rb_tree_node_base
	.section	.text._ZNSt8_Rb_treeIcSt4pairIKciESt10_Select1stIS2_ESt4lessIcESaIS2_EE12_M_erase_auxESt23_Rb_tree_const_iteratorIS2_E,"axG",@progbits,_ZNSt8_Rb_treeIcSt4pairIKciESt10_Select1stIS2_ESt4lessIcESaIS2_EE12_M_erase_auxESt23_Rb_tree_const_iteratorIS2_E,comdat
	.align 2
	.weak	_ZNSt8_Rb_treeIcSt4pairIKciESt10_Select1stIS2_ESt4lessIcESaIS2_EE12_M_erase_auxESt23_Rb_tree_const_iteratorIS2_E
	.type	_ZNSt8_Rb_treeIcSt4pairIKciESt10_Select1stIS2_ESt4lessIcESaIS2_EE12_M_erase_auxESt23_Rb_tree_const_iteratorIS2_E, @function
_ZNSt8_Rb_treeIcSt4pairIKciESt10_Select1stIS2_ESt4lessIcESaIS2_EE12_M_erase_auxESt23_Rb_tree_const_iteratorIS2_E:
.LFB2725:
	.cfi_startproc
	pushq	%rbp
	.cfi_def_cfa_offset 16
	.cfi_offset 6, -16
	movq	%rsp, %rbp
	.cfi_def_cfa_register 6
	subq	$32, %rsp
	movq	%rdi, -24(%rbp)
	movq	%rsi, -32(%rbp)
	movq	-24(%rbp), %rax
	leaq	8(%rax), %rdx
	movq	-32(%rbp), %rax
	movq	%rdx, %rsi
	movq	%rax, %rdi
	call	_ZSt28_Rb_tree_rebalance_for_erasePSt18_Rb_tree_node_baseRS_@PLT
	movq	%rax, -8(%rbp)
	movq	-8(%rbp), %rdx
	movq	-24(%rbp), %rax
	movq	%rdx, %rsi
	movq	%rax, %rdi
	call	_ZNSt8_Rb_treeIcSt4pairIKciESt10_Select1stIS2_ESt4lessIcESaIS2_EE12_M_drop_nodeEPSt13_Rb_tree_nodeIS2_E
	movq	-24(%rbp), %rax
	movq	40(%rax), %rax
	leaq	-1(%rax), %rdx
	movq	-24(%rbp), %rax
	movq	%rdx, 40(%rax)
	nop
	leave
	.cfi_def_cfa 7, 8
	ret
	.cfi_endproc
.LFE2725:
	.size	_ZNSt8_Rb_treeIcSt4pairIKciESt10_Select1stIS2_ESt4lessIcESaIS2_EE12_M_erase_auxESt23_Rb_tree_const_iteratorIS2_E, .-_ZNSt8_Rb_treeIcSt4pairIKciESt10_Select1stIS2_ESt4lessIcESaIS2_EE12_M_erase_auxESt23_Rb_tree_const_iteratorIS2_E
	.section	.text._ZNSt8_Rb_treeIcSt4pairIKciESt10_Select1stIS2_ESt4lessIcESaIS2_EE11equal_rangeERS1_,"axG",@progbits,_ZNSt8_Rb_treeIcSt4pairIKciESt10_Select1stIS2_ESt4lessIcESaIS2_EE11equal_rangeERS1_,comdat
	.align 2
	.weak	_ZNSt8_Rb_treeIcSt4pairIKciESt10_Select1stIS2_ESt4lessIcESaIS2_EE11equal_rangeERS1_
	.type	_ZNSt8_Rb_treeIcSt4pairIKciESt10_Select1stIS2_ESt4lessIcESaIS2_EE11equal_rangeERS1_, @function
_ZNSt8_Rb_treeIcSt4pairIKciESt10_Select1stIS2_ESt4lessIcESaIS2_EE11equal_rangeERS1_:
.LFB2726:
	.cfi_startproc
	pushq	%rbp
	.cfi_def_cfa_offset 16
	.cfi_offset 6, -16
	movq	%rsp, %rbp
	.cfi_def_cfa_register 6
	pushq	%rbx
	subq	$104, %rsp
	.cfi_offset 3, -24
	movq	%rdi, -104(%rbp)
	movq	%rsi, -112(%rbp)
	movq	%fs:40, %rax
	movq	%rax, -24(%rbp)
	xorl	%eax, %eax
	movq	-104(%rbp), %rax
	movq	%rax, %rdi
	call	_ZNSt8_Rb_treeIcSt4pairIKciESt10_Select1stIS2_ESt4lessIcESaIS2_EE8_M_beginEv
	movq	%rax, -80(%rbp)
	movq	-104(%rbp), %rax
	movq	%rax, %rdi
	call	_ZNSt8_Rb_treeIcSt4pairIKciESt10_Select1stIS2_ESt4lessIcESaIS2_EE6_M_endEv
	movq	%rax, -72(%rbp)
.L263:
	cmpq	$0, -80(%rbp)
	je	.L258
	movq	-104(%rbp), %rbx
	movq	-80(%rbp), %rax
	movq	%rax, %rdi
	call	_ZNSt8_Rb_treeIcSt4pairIKciESt10_Select1stIS2_ESt4lessIcESaIS2_EE6_S_keyEPKSt13_Rb_tree_nodeIS2_E
	movq	%rax, %rcx
	movq	-112(%rbp), %rax
	movq	%rax, %rdx
	movq	%rcx, %rsi
	movq	%rbx, %rdi
	call	_ZNKSt4lessIcEclERKcS2_
	testb	%al, %al
	je	.L259
	movq	-80(%rbp), %rax
	movq	%rax, %rdi
	call	_ZNSt8_Rb_treeIcSt4pairIKciESt10_Select1stIS2_ESt4lessIcESaIS2_EE8_S_rightEPSt18_Rb_tree_node_base
	movq	%rax, -80(%rbp)
	jmp	.L263
.L259:
	movq	-104(%rbp), %rbx
	movq	-80(%rbp), %rax
	movq	%rax, %rdi
	call	_ZNSt8_Rb_treeIcSt4pairIKciESt10_Select1stIS2_ESt4lessIcESaIS2_EE6_S_keyEPKSt13_Rb_tree_nodeIS2_E
	movq	%rax, %rdx
	movq	-112(%rbp), %rax
	movq	%rax, %rsi
	movq	%rbx, %rdi
	call	_ZNKSt4lessIcEclERKcS2_
	testb	%al, %al
	je	.L261
	movq	-80(%rbp), %rax
	movq	%rax, -72(%rbp)
	movq	-80(%rbp), %rax
	movq	%rax, %rdi
	call	_ZNSt8_Rb_treeIcSt4pairIKciESt10_Select1stIS2_ESt4lessIcESaIS2_EE7_S_leftEPSt18_Rb_tree_node_base
	movq	%rax, -80(%rbp)
	jmp	.L263
.L261:
	movq	-80(%rbp), %rax
	movq	%rax, -64(%rbp)
	movq	-72(%rbp), %rax
	movq	%rax, -56(%rbp)
	movq	-80(%rbp), %rax
	movq	%rax, -72(%rbp)
	movq	-80(%rbp), %rax
	movq	%rax, %rdi
	call	_ZNSt8_Rb_treeIcSt4pairIKciESt10_Select1stIS2_ESt4lessIcESaIS2_EE7_S_leftEPSt18_Rb_tree_node_base
	movq	%rax, -80(%rbp)
	movq	-64(%rbp), %rax
	movq	%rax, %rdi
	call	_ZNSt8_Rb_treeIcSt4pairIKciESt10_Select1stIS2_ESt4lessIcESaIS2_EE8_S_rightEPSt18_Rb_tree_node_base
	movq	%rax, -64(%rbp)
	movq	-112(%rbp), %rcx
	movq	-56(%rbp), %rdx
	movq	-64(%rbp), %rsi
	movq	-104(%rbp), %rax
	movq	%rax, %rdi
	call	_ZNSt8_Rb_treeIcSt4pairIKciESt10_Select1stIS2_ESt4lessIcESaIS2_EE14_M_upper_boundEPSt13_Rb_tree_nodeIS2_EPSt18_Rb_tree_node_baseRS1_
	movq	%rax, -88(%rbp)
	movq	-112(%rbp), %rcx
	movq	-72(%rbp), %rdx
	movq	-80(%rbp), %rsi
	movq	-104(%rbp), %rax
	movq	%rax, %rdi
	call	_ZNSt8_Rb_treeIcSt4pairIKciESt10_Select1stIS2_ESt4lessIcESaIS2_EE14_M_lower_boundEPSt13_Rb_tree_nodeIS2_EPSt18_Rb_tree_node_baseRS1_
	movq	%rax, -96(%rbp)
	leaq	-88(%rbp), %rdx
	leaq	-96(%rbp), %rcx
	leaq	-48(%rbp), %rax
	movq	%rcx, %rsi
	movq	%rax, %rdi
	call	_ZNSt4pairISt17_Rb_tree_iteratorIS_IKciEES3_EC1IS3_S3_Lb1EEEOT_OT0_
	movq	-48(%rbp), %rax
	movq	-40(%rbp), %rdx
	jmp	.L262
.L258:
	movq	-72(%rbp), %rdx
	leaq	-88(%rbp), %rax
	movq	%rdx, %rsi
	movq	%rax, %rdi
	call	_ZNSt17_Rb_tree_iteratorISt4pairIKciEEC1EPSt18_Rb_tree_node_base
	movq	-72(%rbp), %rdx
	leaq	-96(%rbp), %rax
	movq	%rdx, %rsi
	movq	%rax, %rdi
	call	_ZNSt17_Rb_tree_iteratorISt4pairIKciEEC1EPSt18_Rb_tree_node_base
	leaq	-88(%rbp), %rdx
	leaq	-96(%rbp), %rcx
	leaq	-48(%rbp), %rax
	movq	%rcx, %rsi
	movq	%rax, %rdi
	call	_ZNSt4pairISt17_Rb_tree_iteratorIS_IKciEES3_EC1IS3_S3_Lb1EEEOT_OT0_
	movq	-48(%rbp), %rax
	movq	-40(%rbp), %rdx
.L262:
	movq	-24(%rbp), %rbx
	xorq	%fs:40, %rbx
	je	.L264
	call	__stack_chk_fail@PLT
.L264:
	addq	$104, %rsp
	popq	%rbx
	popq	%rbp
	.cfi_def_cfa 7, 8
	ret
	.cfi_endproc
.LFE2726:
	.size	_ZNSt8_Rb_treeIcSt4pairIKciESt10_Select1stIS2_ESt4lessIcESaIS2_EE11equal_rangeERS1_, .-_ZNSt8_Rb_treeIcSt4pairIKciESt10_Select1stIS2_ESt4lessIcESaIS2_EE11equal_rangeERS1_
	.section	.text._ZNKSt8_Rb_treeIcSt4pairIKciESt10_Select1stIS2_ESt4lessIcESaIS2_EE4sizeEv,"axG",@progbits,_ZNKSt8_Rb_treeIcSt4pairIKciESt10_Select1stIS2_ESt4lessIcESaIS2_EE4sizeEv,comdat
	.align 2
	.weak	_ZNKSt8_Rb_treeIcSt4pairIKciESt10_Select1stIS2_ESt4lessIcESaIS2_EE4sizeEv
	.type	_ZNKSt8_Rb_treeIcSt4pairIKciESt10_Select1stIS2_ESt4lessIcESaIS2_EE4sizeEv, @function
_ZNKSt8_Rb_treeIcSt4pairIKciESt10_Select1stIS2_ESt4lessIcESaIS2_EE4sizeEv:
.LFB2735:
	.cfi_startproc
	pushq	%rbp
	.cfi_def_cfa_offset 16
	.cfi_offset 6, -16
	movq	%rsp, %rbp
	.cfi_def_cfa_register 6
	movq	%rdi, -8(%rbp)
	movq	-8(%rbp), %rax
	movq	40(%rax), %rax
	popq	%rbp
	.cfi_def_cfa 7, 8
	ret
	.cfi_endproc
.LFE2735:
	.size	_ZNKSt8_Rb_treeIcSt4pairIKciESt10_Select1stIS2_ESt4lessIcESaIS2_EE4sizeEv, .-_ZNKSt8_Rb_treeIcSt4pairIKciESt10_Select1stIS2_ESt4lessIcESaIS2_EE4sizeEv
	.section	.text._ZNSt8_Rb_treeIcSt4pairIKciESt10_Select1stIS2_ESt4lessIcESaIS2_EE12_M_erase_auxESt23_Rb_tree_const_iteratorIS2_ESA_,"axG",@progbits,_ZNSt8_Rb_treeIcSt4pairIKciESt10_Select1stIS2_ESt4lessIcESaIS2_EE12_M_erase_auxESt23_Rb_tree_const_iteratorIS2_ESA_,comdat
	.align 2
	.weak	_ZNSt8_Rb_treeIcSt4pairIKciESt10_Select1stIS2_ESt4lessIcESaIS2_EE12_M_erase_auxESt23_Rb_tree_const_iteratorIS2_ESA_
	.type	_ZNSt8_Rb_treeIcSt4pairIKciESt10_Select1stIS2_ESt4lessIcESaIS2_EE12_M_erase_auxESt23_Rb_tree_const_iteratorIS2_ESA_, @function
_ZNSt8_Rb_treeIcSt4pairIKciESt10_Select1stIS2_ESt4lessIcESaIS2_EE12_M_erase_auxESt23_Rb_tree_const_iteratorIS2_ESA_:
.LFB2736:
	.cfi_startproc
	pushq	%rbp
	.cfi_def_cfa_offset 16
	.cfi_offset 6, -16
	movq	%rsp, %rbp
	.cfi_def_cfa_register 6
	subq	$80, %rsp
	movq	%rdi, -56(%rbp)
	movq	%rsi, -64(%rbp)
	movq	%rdx, -72(%rbp)
	movq	%fs:40, %rax
	movq	%rax, -8(%rbp)
	xorl	%eax, %eax
	movq	-56(%rbp), %rax
	movq	%rax, %rdi
	call	_ZNSt8_Rb_treeIcSt4pairIKciESt10_Select1stIS2_ESt4lessIcESaIS2_EE5beginEv
	movq	%rax, -40(%rbp)
	leaq	-40(%rbp), %rdx
	leaq	-32(%rbp), %rax
	movq	%rdx, %rsi
	movq	%rax, %rdi
	call	_ZNSt23_Rb_tree_const_iteratorISt4pairIKciEEC1ERKSt17_Rb_tree_iteratorIS2_E
	leaq	-32(%rbp), %rdx
	leaq	-64(%rbp), %rax
	movq	%rdx, %rsi
	movq	%rax, %rdi
	call	_ZNKSt23_Rb_tree_const_iteratorISt4pairIKciEEeqERKS3_
	testb	%al, %al
	je	.L268
	movq	-56(%rbp), %rax
	movq	%rax, %rdi
	call	_ZNSt8_Rb_treeIcSt4pairIKciESt10_Select1stIS2_ESt4lessIcESaIS2_EE3endEv
	movq	%rax, -24(%rbp)
	leaq	-24(%rbp), %rdx
	leaq	-16(%rbp), %rax
	movq	%rdx, %rsi
	movq	%rax, %rdi
	call	_ZNSt23_Rb_tree_const_iteratorISt4pairIKciEEC1ERKSt17_Rb_tree_iteratorIS2_E
	leaq	-16(%rbp), %rdx
	leaq	-72(%rbp), %rax
	movq	%rdx, %rsi
	movq	%rax, %rdi
	call	_ZNKSt23_Rb_tree_const_iteratorISt4pairIKciEEeqERKS3_
	testb	%al, %al
	je	.L268
	movl	$1, %eax
	jmp	.L269
.L268:
	movl	$0, %eax
.L269:
	testb	%al, %al
	je	.L270
	movq	-56(%rbp), %rax
	movq	%rax, %rdi
	call	_ZNSt8_Rb_treeIcSt4pairIKciESt10_Select1stIS2_ESt4lessIcESaIS2_EE5clearEv
	jmp	.L273
.L270:
	leaq	-72(%rbp), %rdx
	leaq	-64(%rbp), %rax
	movq	%rdx, %rsi
	movq	%rax, %rdi
	call	_ZNKSt23_Rb_tree_const_iteratorISt4pairIKciEEneERKS3_
	testb	%al, %al
	je	.L273
	leaq	-64(%rbp), %rax
	movl	$0, %esi
	movq	%rax, %rdi
	call	_ZNSt23_Rb_tree_const_iteratorISt4pairIKciEEppEi
	movq	%rax, %rdx
	movq	-56(%rbp), %rax
	movq	%rdx, %rsi
	movq	%rax, %rdi
	call	_ZNSt8_Rb_treeIcSt4pairIKciESt10_Select1stIS2_ESt4lessIcESaIS2_EE12_M_erase_auxESt23_Rb_tree_const_iteratorIS2_E
	jmp	.L270
.L273:
	nop
	movq	-8(%rbp), %rax
	xorq	%fs:40, %rax
	je	.L272
	call	__stack_chk_fail@PLT
.L272:
	leave
	.cfi_def_cfa 7, 8
	ret
	.cfi_endproc
.LFE2736:
	.size	_ZNSt8_Rb_treeIcSt4pairIKciESt10_Select1stIS2_ESt4lessIcESaIS2_EE12_M_erase_auxESt23_Rb_tree_const_iteratorIS2_ESA_, .-_ZNSt8_Rb_treeIcSt4pairIKciESt10_Select1stIS2_ESt4lessIcESaIS2_EE12_M_erase_auxESt23_Rb_tree_const_iteratorIS2_ESA_
	.section	.text._ZNKSt23_Rb_tree_const_iteratorISt4pairIKciEE13_M_const_castEv,"axG",@progbits,_ZNKSt23_Rb_tree_const_iteratorISt4pairIKciEE13_M_const_castEv,comdat
	.align 2
	.weak	_ZNKSt23_Rb_tree_const_iteratorISt4pairIKciEE13_M_const_castEv
	.type	_ZNKSt23_Rb_tree_const_iteratorISt4pairIKciEE13_M_const_castEv, @function
_ZNKSt23_Rb_tree_const_iteratorISt4pairIKciEE13_M_const_castEv:
.LFB2737:
	.cfi_startproc
	pushq	%rbp
	.cfi_def_cfa_offset 16
	.cfi_offset 6, -16
	movq	%rsp, %rbp
	.cfi_def_cfa_register 6
	subq	$32, %rsp
	movq	%rdi, -24(%rbp)
	movq	%fs:40, %rax
	movq	%rax, -8(%rbp)
	xorl	%eax, %eax
	movq	-24(%rbp), %rax
	movq	(%rax), %rdx
	leaq	-16(%rbp), %rax
	movq	%rdx, %rsi
	movq	%rax, %rdi
	call	_ZNSt17_Rb_tree_iteratorISt4pairIKciEEC1EPSt18_Rb_tree_node_base
	movq	-16(%rbp), %rax
	movq	-8(%rbp), %rcx
	xorq	%fs:40, %rcx
	je	.L276
	call	__stack_chk_fail@PLT
.L276:
	leave
	.cfi_def_cfa 7, 8
	ret
	.cfi_endproc
.LFE2737:
	.size	_ZNKSt23_Rb_tree_const_iteratorISt4pairIKciEE13_M_const_castEv, .-_ZNKSt23_Rb_tree_const_iteratorISt4pairIKciEE13_M_const_castEv
	.section	.text._ZN9__gnu_cxx16__aligned_membufISt4pairIKciEE6_M_ptrEv,"axG",@progbits,_ZN9__gnu_cxx16__aligned_membufISt4pairIKciEE6_M_ptrEv,comdat
	.align 2
	.weak	_ZN9__gnu_cxx16__aligned_membufISt4pairIKciEE6_M_ptrEv
	.type	_ZN9__gnu_cxx16__aligned_membufISt4pairIKciEE6_M_ptrEv, @function
_ZN9__gnu_cxx16__aligned_membufISt4pairIKciEE6_M_ptrEv:
.LFB2738:
	.cfi_startproc
	pushq	%rbp
	.cfi_def_cfa_offset 16
	.cfi_offset 6, -16
	movq	%rsp, %rbp
	.cfi_def_cfa_register 6
	subq	$16, %rsp
	movq	%rdi, -8(%rbp)
	movq	-8(%rbp), %rax
	movq	%rax, %rdi
	call	_ZN9__gnu_cxx16__aligned_membufISt4pairIKciEE7_M_addrEv
	leave
	.cfi_def_cfa 7, 8
	ret
	.cfi_endproc
.LFE2738:
	.size	_ZN9__gnu_cxx16__aligned_membufISt4pairIKciEE6_M_ptrEv, .-_ZN9__gnu_cxx16__aligned_membufISt4pairIKciEE6_M_ptrEv
	.section	.text._ZN9__gnu_cxx13new_allocatorISt13_Rb_tree_nodeISt4pairIKicEEEC2Ev,"axG",@progbits,_ZN9__gnu_cxx13new_allocatorISt13_Rb_tree_nodeISt4pairIKicEEEC5Ev,comdat
	.align 2
	.weak	_ZN9__gnu_cxx13new_allocatorISt13_Rb_tree_nodeISt4pairIKicEEEC2Ev
	.type	_ZN9__gnu_cxx13new_allocatorISt13_Rb_tree_nodeISt4pairIKicEEEC2Ev, @function
_ZN9__gnu_cxx13new_allocatorISt13_Rb_tree_nodeISt4pairIKicEEEC2Ev:
.LFB2742:
	.cfi_startproc
	pushq	%rbp
	.cfi_def_cfa_offset 16
	.cfi_offset 6, -16
	movq	%rsp, %rbp
	.cfi_def_cfa_register 6
	movq	%rdi, -8(%rbp)
	nop
	popq	%rbp
	.cfi_def_cfa 7, 8
	ret
	.cfi_endproc
.LFE2742:
	.size	_ZN9__gnu_cxx13new_allocatorISt13_Rb_tree_nodeISt4pairIKicEEEC2Ev, .-_ZN9__gnu_cxx13new_allocatorISt13_Rb_tree_nodeISt4pairIKicEEEC2Ev
	.weak	_ZN9__gnu_cxx13new_allocatorISt13_Rb_tree_nodeISt4pairIKicEEEC1Ev
	.set	_ZN9__gnu_cxx13new_allocatorISt13_Rb_tree_nodeISt4pairIKicEEEC1Ev,_ZN9__gnu_cxx13new_allocatorISt13_Rb_tree_nodeISt4pairIKicEEEC2Ev
	.section	.text._ZNSt8_Rb_treeIiSt4pairIKicESt10_Select1stIS2_ESt4lessIiESaIS2_EE8_S_rightEPSt18_Rb_tree_node_base,"axG",@progbits,_ZNSt8_Rb_treeIiSt4pairIKicESt10_Select1stIS2_ESt4lessIiESaIS2_EE8_S_rightEPSt18_Rb_tree_node_base,comdat
	.weak	_ZNSt8_Rb_treeIiSt4pairIKicESt10_Select1stIS2_ESt4lessIiESaIS2_EE8_S_rightEPSt18_Rb_tree_node_base
	.type	_ZNSt8_Rb_treeIiSt4pairIKicESt10_Select1stIS2_ESt4lessIiESaIS2_EE8_S_rightEPSt18_Rb_tree_node_base, @function
_ZNSt8_Rb_treeIiSt4pairIKicESt10_Select1stIS2_ESt4lessIiESaIS2_EE8_S_rightEPSt18_Rb_tree_node_base:
.LFB2744:
	.cfi_startproc
	pushq	%rbp
	.cfi_def_cfa_offset 16
	.cfi_offset 6, -16
	movq	%rsp, %rbp
	.cfi_def_cfa_register 6
	movq	%rdi, -8(%rbp)
	movq	-8(%rbp), %rax
	movq	24(%rax), %rax
	popq	%rbp
	.cfi_def_cfa 7, 8
	ret
	.cfi_endproc
.LFE2744:
	.size	_ZNSt8_Rb_treeIiSt4pairIKicESt10_Select1stIS2_ESt4lessIiESaIS2_EE8_S_rightEPSt18_Rb_tree_node_base, .-_ZNSt8_Rb_treeIiSt4pairIKicESt10_Select1stIS2_ESt4lessIiESaIS2_EE8_S_rightEPSt18_Rb_tree_node_base
	.section	.text._ZNSt8_Rb_treeIiSt4pairIKicESt10_Select1stIS2_ESt4lessIiESaIS2_EE7_S_leftEPSt18_Rb_tree_node_base,"axG",@progbits,_ZNSt8_Rb_treeIiSt4pairIKicESt10_Select1stIS2_ESt4lessIiESaIS2_EE7_S_leftEPSt18_Rb_tree_node_base,comdat
	.weak	_ZNSt8_Rb_treeIiSt4pairIKicESt10_Select1stIS2_ESt4lessIiESaIS2_EE7_S_leftEPSt18_Rb_tree_node_base
	.type	_ZNSt8_Rb_treeIiSt4pairIKicESt10_Select1stIS2_ESt4lessIiESaIS2_EE7_S_leftEPSt18_Rb_tree_node_base, @function
_ZNSt8_Rb_treeIiSt4pairIKicESt10_Select1stIS2_ESt4lessIiESaIS2_EE7_S_leftEPSt18_Rb_tree_node_base:
.LFB2745:
	.cfi_startproc
	pushq	%rbp
	.cfi_def_cfa_offset 16
	.cfi_offset 6, -16
	movq	%rsp, %rbp
	.cfi_def_cfa_register 6
	movq	%rdi, -8(%rbp)
	movq	-8(%rbp), %rax
	movq	16(%rax), %rax
	popq	%rbp
	.cfi_def_cfa 7, 8
	ret
	.cfi_endproc
.LFE2745:
	.size	_ZNSt8_Rb_treeIiSt4pairIKicESt10_Select1stIS2_ESt4lessIiESaIS2_EE7_S_leftEPSt18_Rb_tree_node_base, .-_ZNSt8_Rb_treeIiSt4pairIKicESt10_Select1stIS2_ESt4lessIiESaIS2_EE7_S_leftEPSt18_Rb_tree_node_base
	.section	.text._ZNSt8_Rb_treeIiSt4pairIKicESt10_Select1stIS2_ESt4lessIiESaIS2_EE12_M_drop_nodeEPSt13_Rb_tree_nodeIS2_E,"axG",@progbits,_ZNSt8_Rb_treeIiSt4pairIKicESt10_Select1stIS2_ESt4lessIiESaIS2_EE12_M_drop_nodeEPSt13_Rb_tree_nodeIS2_E,comdat
	.align 2
	.weak	_ZNSt8_Rb_treeIiSt4pairIKicESt10_Select1stIS2_ESt4lessIiESaIS2_EE12_M_drop_nodeEPSt13_Rb_tree_nodeIS2_E
	.type	_ZNSt8_Rb_treeIiSt4pairIKicESt10_Select1stIS2_ESt4lessIiESaIS2_EE12_M_drop_nodeEPSt13_Rb_tree_nodeIS2_E, @function
_ZNSt8_Rb_treeIiSt4pairIKicESt10_Select1stIS2_ESt4lessIiESaIS2_EE12_M_drop_nodeEPSt13_Rb_tree_nodeIS2_E:
.LFB2746:
	.cfi_startproc
	pushq	%rbp
	.cfi_def_cfa_offset 16
	.cfi_offset 6, -16
	movq	%rsp, %rbp
	.cfi_def_cfa_register 6
	subq	$16, %rsp
	movq	%rdi, -8(%rbp)
	movq	%rsi, -16(%rbp)
	movq	-16(%rbp), %rdx
	movq	-8(%rbp), %rax
	movq	%rdx, %rsi
	movq	%rax, %rdi
	call	_ZNSt8_Rb_treeIiSt4pairIKicESt10_Select1stIS2_ESt4lessIiESaIS2_EE15_M_destroy_nodeEPSt13_Rb_tree_nodeIS2_E
	movq	-16(%rbp), %rdx
	movq	-8(%rbp), %rax
	movq	%rdx, %rsi
	movq	%rax, %rdi
	call	_ZNSt8_Rb_treeIiSt4pairIKicESt10_Select1stIS2_ESt4lessIiESaIS2_EE11_M_put_nodeEPSt13_Rb_tree_nodeIS2_E
	nop
	leave
	.cfi_def_cfa 7, 8
	ret
	.cfi_endproc
.LFE2746:
	.size	_ZNSt8_Rb_treeIiSt4pairIKicESt10_Select1stIS2_ESt4lessIiESaIS2_EE12_M_drop_nodeEPSt13_Rb_tree_nodeIS2_E, .-_ZNSt8_Rb_treeIiSt4pairIKicESt10_Select1stIS2_ESt4lessIiESaIS2_EE12_M_drop_nodeEPSt13_Rb_tree_nodeIS2_E
	.section	.text._ZNSt8_Rb_treeIiSt4pairIKicESt10_Select1stIS2_ESt4lessIiESaIS2_EE14_M_create_nodeIJS0_IicEEEEPSt13_Rb_tree_nodeIS2_EDpOT_,"axG",@progbits,_ZNSt8_Rb_treeIiSt4pairIKicESt10_Select1stIS2_ESt4lessIiESaIS2_EE14_M_create_nodeIJS0_IicEEEEPSt13_Rb_tree_nodeIS2_EDpOT_,comdat
	.align 2
	.weak	_ZNSt8_Rb_treeIiSt4pairIKicESt10_Select1stIS2_ESt4lessIiESaIS2_EE14_M_create_nodeIJS0_IicEEEEPSt13_Rb_tree_nodeIS2_EDpOT_
	.type	_ZNSt8_Rb_treeIiSt4pairIKicESt10_Select1stIS2_ESt4lessIiESaIS2_EE14_M_create_nodeIJS0_IicEEEEPSt13_Rb_tree_nodeIS2_EDpOT_, @function
_ZNSt8_Rb_treeIiSt4pairIKicESt10_Select1stIS2_ESt4lessIiESaIS2_EE14_M_create_nodeIJS0_IicEEEEPSt13_Rb_tree_nodeIS2_EDpOT_:
.LFB2747:
	.cfi_startproc
	pushq	%rbp
	.cfi_def_cfa_offset 16
	.cfi_offset 6, -16
	movq	%rsp, %rbp
	.cfi_def_cfa_register 6
	subq	$32, %rsp
	movq	%rdi, -24(%rbp)
	movq	%rsi, -32(%rbp)
	movq	-24(%rbp), %rax
	movq	%rax, %rdi
	call	_ZNSt8_Rb_treeIiSt4pairIKicESt10_Select1stIS2_ESt4lessIiESaIS2_EE11_M_get_nodeEv
	movq	%rax, -8(%rbp)
	movq	-32(%rbp), %rax
	movq	%rax, %rdi
	call	_ZSt7forwardISt4pairIicEEOT_RNSt16remove_referenceIS2_E4typeE
	movq	%rax, %rdx
	movq	-8(%rbp), %rcx
	movq	-24(%rbp), %rax
	movq	%rcx, %rsi
	movq	%rax, %rdi
	call	_ZNSt8_Rb_treeIiSt4pairIKicESt10_Select1stIS2_ESt4lessIiESaIS2_EE17_M_construct_nodeIJS0_IicEEEEvPSt13_Rb_tree_nodeIS2_EDpOT_
	movq	-8(%rbp), %rax
	leave
	.cfi_def_cfa 7, 8
	ret
	.cfi_endproc
.LFE2747:
	.size	_ZNSt8_Rb_treeIiSt4pairIKicESt10_Select1stIS2_ESt4lessIiESaIS2_EE14_M_create_nodeIJS0_IicEEEEPSt13_Rb_tree_nodeIS2_EDpOT_, .-_ZNSt8_Rb_treeIiSt4pairIKicESt10_Select1stIS2_ESt4lessIiESaIS2_EE14_M_create_nodeIJS0_IicEEEEPSt13_Rb_tree_nodeIS2_EDpOT_
	.section	.text._ZNSt4pairIPSt18_Rb_tree_node_baseS1_EC2IRPSt13_Rb_tree_nodeIS_IKicEERS1_Lb1EEEOT_OT0_,"axG",@progbits,_ZNSt4pairIPSt18_Rb_tree_node_baseS1_EC5IRPSt13_Rb_tree_nodeIS_IKicEERS1_Lb1EEEOT_OT0_,comdat
	.align 2
	.weak	_ZNSt4pairIPSt18_Rb_tree_node_baseS1_EC2IRPSt13_Rb_tree_nodeIS_IKicEERS1_Lb1EEEOT_OT0_
	.type	_ZNSt4pairIPSt18_Rb_tree_node_baseS1_EC2IRPSt13_Rb_tree_nodeIS_IKicEERS1_Lb1EEEOT_OT0_, @function
_ZNSt4pairIPSt18_Rb_tree_node_baseS1_EC2IRPSt13_Rb_tree_nodeIS_IKicEERS1_Lb1EEEOT_OT0_:
.LFB2754:
	.cfi_startproc
	pushq	%rbp
	.cfi_def_cfa_offset 16
	.cfi_offset 6, -16
	movq	%rsp, %rbp
	.cfi_def_cfa_register 6
	subq	$32, %rsp
	movq	%rdi, -8(%rbp)
	movq	%rsi, -16(%rbp)
	movq	%rdx, -24(%rbp)
	movq	-16(%rbp), %rax
	movq	%rax, %rdi
	call	_ZSt7forwardIRPSt13_Rb_tree_nodeISt4pairIKicEEEOT_RNSt16remove_referenceIS7_E4typeE
	movq	(%rax), %rdx
	movq	-8(%rbp), %rax
	movq	%rdx, (%rax)
	movq	-24(%rbp), %rax
	movq	%rax, %rdi
	call	_ZSt7forwardIRPSt18_Rb_tree_node_baseEOT_RNSt16remove_referenceIS3_E4typeE
	movq	(%rax), %rdx
	movq	-8(%rbp), %rax
	movq	%rdx, 8(%rax)
	nop
	leave
	.cfi_def_cfa 7, 8
	ret
	.cfi_endproc
.LFE2754:
	.size	_ZNSt4pairIPSt18_Rb_tree_node_baseS1_EC2IRPSt13_Rb_tree_nodeIS_IKicEERS1_Lb1EEEOT_OT0_, .-_ZNSt4pairIPSt18_Rb_tree_node_baseS1_EC2IRPSt13_Rb_tree_nodeIS_IKicEERS1_Lb1EEEOT_OT0_
	.weak	_ZNSt4pairIPSt18_Rb_tree_node_baseS1_EC1IRPSt13_Rb_tree_nodeIS_IKicEERS1_Lb1EEEOT_OT0_
	.set	_ZNSt4pairIPSt18_Rb_tree_node_baseS1_EC1IRPSt13_Rb_tree_nodeIS_IKicEERS1_Lb1EEEOT_OT0_,_ZNSt4pairIPSt18_Rb_tree_node_baseS1_EC2IRPSt13_Rb_tree_nodeIS_IKicEERS1_Lb1EEEOT_OT0_
	.section	.text._ZSt7forwardIRPSt13_Rb_tree_nodeISt4pairIKicEEEOT_RNSt16remove_referenceIS7_E4typeE,"axG",@progbits,_ZSt7forwardIRPSt13_Rb_tree_nodeISt4pairIKicEEEOT_RNSt16remove_referenceIS7_E4typeE,comdat
	.weak	_ZSt7forwardIRPSt13_Rb_tree_nodeISt4pairIKicEEEOT_RNSt16remove_referenceIS7_E4typeE
	.type	_ZSt7forwardIRPSt13_Rb_tree_nodeISt4pairIKicEEEOT_RNSt16remove_referenceIS7_E4typeE, @function
_ZSt7forwardIRPSt13_Rb_tree_nodeISt4pairIKicEEEOT_RNSt16remove_referenceIS7_E4typeE:
.LFB2756:
	.cfi_startproc
	pushq	%rbp
	.cfi_def_cfa_offset 16
	.cfi_offset 6, -16
	movq	%rsp, %rbp
	.cfi_def_cfa_register 6
	movq	%rdi, -8(%rbp)
	movq	-8(%rbp), %rax
	popq	%rbp
	.cfi_def_cfa 7, 8
	ret
	.cfi_endproc
.LFE2756:
	.size	_ZSt7forwardIRPSt13_Rb_tree_nodeISt4pairIKicEEEOT_RNSt16remove_referenceIS7_E4typeE, .-_ZSt7forwardIRPSt13_Rb_tree_nodeISt4pairIKicEEEOT_RNSt16remove_referenceIS7_E4typeE
	.section	.text._ZNSt8_Rb_treeIiSt4pairIKicESt10_Select1stIS2_ESt4lessIiESaIS2_EE24_M_get_insert_unique_posERS1_,"axG",@progbits,_ZNSt8_Rb_treeIiSt4pairIKicESt10_Select1stIS2_ESt4lessIiESaIS2_EE24_M_get_insert_unique_posERS1_,comdat
	.align 2
	.weak	_ZNSt8_Rb_treeIiSt4pairIKicESt10_Select1stIS2_ESt4lessIiESaIS2_EE24_M_get_insert_unique_posERS1_
	.type	_ZNSt8_Rb_treeIiSt4pairIKicESt10_Select1stIS2_ESt4lessIiESaIS2_EE24_M_get_insert_unique_posERS1_, @function
_ZNSt8_Rb_treeIiSt4pairIKicESt10_Select1stIS2_ESt4lessIiESaIS2_EE24_M_get_insert_unique_posERS1_:
.LFB2748:
	.cfi_startproc
	pushq	%rbp
	.cfi_def_cfa_offset 16
	.cfi_offset 6, -16
	movq	%rsp, %rbp
	.cfi_def_cfa_register 6
	pushq	%rbx
	subq	$104, %rsp
	.cfi_offset 3, -24
	movq	%rdi, -104(%rbp)
	movq	%rsi, -112(%rbp)
	movq	%fs:40, %rax
	movq	%rax, -24(%rbp)
	xorl	%eax, %eax
	movq	-104(%rbp), %rax
	movq	%rax, %rdi
	call	_ZNSt8_Rb_treeIiSt4pairIKicESt10_Select1stIS2_ESt4lessIiESaIS2_EE8_M_beginEv
	movq	%rax, -80(%rbp)
	movq	-104(%rbp), %rax
	movq	%rax, %rdi
	call	_ZNSt8_Rb_treeIiSt4pairIKicESt10_Select1stIS2_ESt4lessIiESaIS2_EE6_M_endEv
	movq	%rax, -72(%rbp)
	movb	$1, -81(%rbp)
.L294:
	movq	-80(%rbp), %rax
	testq	%rax, %rax
	je	.L291
	movq	-80(%rbp), %rax
	movq	%rax, -72(%rbp)
	movq	-104(%rbp), %rbx
	movq	-80(%rbp), %rax
	movq	%rax, %rdi
	call	_ZNSt8_Rb_treeIiSt4pairIKicESt10_Select1stIS2_ESt4lessIiESaIS2_EE6_S_keyEPKSt13_Rb_tree_nodeIS2_E
	movq	%rax, %rdx
	movq	-112(%rbp), %rax
	movq	%rax, %rsi
	movq	%rbx, %rdi
	call	_ZNKSt4lessIiEclERKiS2_
	movb	%al, -81(%rbp)
	cmpb	$0, -81(%rbp)
	je	.L292
	movq	-80(%rbp), %rax
	movq	%rax, %rdi
	call	_ZNSt8_Rb_treeIiSt4pairIKicESt10_Select1stIS2_ESt4lessIiESaIS2_EE7_S_leftEPSt18_Rb_tree_node_base
	jmp	.L293
.L292:
	movq	-80(%rbp), %rax
	movq	%rax, %rdi
	call	_ZNSt8_Rb_treeIiSt4pairIKicESt10_Select1stIS2_ESt4lessIiESaIS2_EE8_S_rightEPSt18_Rb_tree_node_base
.L293:
	movq	%rax, -80(%rbp)
	jmp	.L294
.L291:
	movq	-72(%rbp), %rdx
	leaq	-64(%rbp), %rax
	movq	%rdx, %rsi
	movq	%rax, %rdi
	call	_ZNSt17_Rb_tree_iteratorISt4pairIKicEEC1EPSt18_Rb_tree_node_base
	cmpb	$0, -81(%rbp)
	je	.L295
	movq	-104(%rbp), %rax
	movq	%rax, %rdi
	call	_ZNSt8_Rb_treeIiSt4pairIKicESt10_Select1stIS2_ESt4lessIiESaIS2_EE5beginEv
	movq	%rax, -48(%rbp)
	leaq	-48(%rbp), %rdx
	leaq	-64(%rbp), %rax
	movq	%rdx, %rsi
	movq	%rax, %rdi
	call	_ZNKSt17_Rb_tree_iteratorISt4pairIKicEEeqERKS3_
	testb	%al, %al
	je	.L296
	leaq	-72(%rbp), %rdx
	leaq	-80(%rbp), %rcx
	leaq	-48(%rbp), %rax
	movq	%rcx, %rsi
	movq	%rax, %rdi
	call	_ZNSt4pairIPSt18_Rb_tree_node_baseS1_EC1IRPSt13_Rb_tree_nodeIS_IKicEERS1_Lb1EEEOT_OT0_
	movq	-48(%rbp), %rax
	movq	-40(%rbp), %rdx
	jmp	.L299
.L296:
	leaq	-64(%rbp), %rax
	movq	%rax, %rdi
	call	_ZNSt17_Rb_tree_iteratorISt4pairIKicEEmmEv
.L295:
	movq	-104(%rbp), %rbx
	movq	-64(%rbp), %rax
	movq	%rax, %rdi
	call	_ZNSt8_Rb_treeIiSt4pairIKicESt10_Select1stIS2_ESt4lessIiESaIS2_EE6_S_keyEPKSt18_Rb_tree_node_base
	movq	%rax, %rcx
	movq	-112(%rbp), %rax
	movq	%rax, %rdx
	movq	%rcx, %rsi
	movq	%rbx, %rdi
	call	_ZNKSt4lessIiEclERKiS2_
	testb	%al, %al
	je	.L298
	leaq	-72(%rbp), %rdx
	leaq	-80(%rbp), %rcx
	leaq	-48(%rbp), %rax
	movq	%rcx, %rsi
	movq	%rax, %rdi
	call	_ZNSt4pairIPSt18_Rb_tree_node_baseS1_EC1IRPSt13_Rb_tree_nodeIS_IKicEERS1_Lb1EEEOT_OT0_
	movq	-48(%rbp), %rax
	movq	-40(%rbp), %rdx
	jmp	.L299
.L298:
	movq	$0, -56(%rbp)
	leaq	-56(%rbp), %rdx
	leaq	-64(%rbp), %rcx
	leaq	-48(%rbp), %rax
	movq	%rcx, %rsi
	movq	%rax, %rdi
	call	_ZNSt4pairIPSt18_Rb_tree_node_baseS1_EC1IRS1_Lb1EEEOT_RKS1_
	movq	-48(%rbp), %rax
	movq	-40(%rbp), %rdx
.L299:
	movq	-24(%rbp), %rbx
	xorq	%fs:40, %rbx
	je	.L300
	call	__stack_chk_fail@PLT
.L300:
	addq	$104, %rsp
	popq	%rbx
	popq	%rbp
	.cfi_def_cfa 7, 8
	ret
	.cfi_endproc
.LFE2748:
	.size	_ZNSt8_Rb_treeIiSt4pairIKicESt10_Select1stIS2_ESt4lessIiESaIS2_EE24_M_get_insert_unique_posERS1_, .-_ZNSt8_Rb_treeIiSt4pairIKicESt10_Select1stIS2_ESt4lessIiESaIS2_EE24_M_get_insert_unique_posERS1_
	.section	.text._ZNSt8_Rb_treeIiSt4pairIKicESt10_Select1stIS2_ESt4lessIiESaIS2_EE6_S_keyEPKSt13_Rb_tree_nodeIS2_E,"axG",@progbits,_ZNSt8_Rb_treeIiSt4pairIKicESt10_Select1stIS2_ESt4lessIiESaIS2_EE6_S_keyEPKSt13_Rb_tree_nodeIS2_E,comdat
	.weak	_ZNSt8_Rb_treeIiSt4pairIKicESt10_Select1stIS2_ESt4lessIiESaIS2_EE6_S_keyEPKSt13_Rb_tree_nodeIS2_E
	.type	_ZNSt8_Rb_treeIiSt4pairIKicESt10_Select1stIS2_ESt4lessIiESaIS2_EE6_S_keyEPKSt13_Rb_tree_nodeIS2_E, @function
_ZNSt8_Rb_treeIiSt4pairIKicESt10_Select1stIS2_ESt4lessIiESaIS2_EE6_S_keyEPKSt13_Rb_tree_nodeIS2_E:
.LFB2757:
	.cfi_startproc
	pushq	%rbp
	.cfi_def_cfa_offset 16
	.cfi_offset 6, -16
	movq	%rsp, %rbp
	.cfi_def_cfa_register 6
	subq	$32, %rsp
	movq	%rdi, -24(%rbp)
	movq	%fs:40, %rax
	movq	%rax, -8(%rbp)
	xorl	%eax, %eax
	movq	-24(%rbp), %rax
	movq	%rax, %rdi
	call	_ZNSt8_Rb_treeIiSt4pairIKicESt10_Select1stIS2_ESt4lessIiESaIS2_EE8_S_valueEPKSt13_Rb_tree_nodeIS2_E
	movq	%rax, %rdx
	leaq	-9(%rbp), %rax
	movq	%rdx, %rsi
	movq	%rax, %rdi
	call	_ZNKSt10_Select1stISt4pairIKicEEclERKS2_
	nop
	movq	-8(%rbp), %rcx
	xorq	%fs:40, %rcx
	je	.L303
	call	__stack_chk_fail@PLT
.L303:
	leave
	.cfi_def_cfa 7, 8
	ret
	.cfi_endproc
.LFE2757:
	.size	_ZNSt8_Rb_treeIiSt4pairIKicESt10_Select1stIS2_ESt4lessIiESaIS2_EE6_S_keyEPKSt13_Rb_tree_nodeIS2_E, .-_ZNSt8_Rb_treeIiSt4pairIKicESt10_Select1stIS2_ESt4lessIiESaIS2_EE6_S_keyEPKSt13_Rb_tree_nodeIS2_E
	.section	.text._ZNSt8_Rb_treeIiSt4pairIKicESt10_Select1stIS2_ESt4lessIiESaIS2_EE14_M_insert_nodeEPSt18_Rb_tree_node_baseSA_PSt13_Rb_tree_nodeIS2_E,"axG",@progbits,_ZNSt8_Rb_treeIiSt4pairIKicESt10_Select1stIS2_ESt4lessIiESaIS2_EE14_M_insert_nodeEPSt18_Rb_tree_node_baseSA_PSt13_Rb_tree_nodeIS2_E,comdat
	.align 2
	.weak	_ZNSt8_Rb_treeIiSt4pairIKicESt10_Select1stIS2_ESt4lessIiESaIS2_EE14_M_insert_nodeEPSt18_Rb_tree_node_baseSA_PSt13_Rb_tree_nodeIS2_E
	.type	_ZNSt8_Rb_treeIiSt4pairIKicESt10_Select1stIS2_ESt4lessIiESaIS2_EE14_M_insert_nodeEPSt18_Rb_tree_node_baseSA_PSt13_Rb_tree_nodeIS2_E, @function
_ZNSt8_Rb_treeIiSt4pairIKicESt10_Select1stIS2_ESt4lessIiESaIS2_EE14_M_insert_nodeEPSt18_Rb_tree_node_baseSA_PSt13_Rb_tree_nodeIS2_E:
.LFB2758:
	.cfi_startproc
	pushq	%rbp
	.cfi_def_cfa_offset 16
	.cfi_offset 6, -16
	movq	%rsp, %rbp
	.cfi_def_cfa_register 6
	pushq	%r12
	pushq	%rbx
	subq	$64, %rsp
	.cfi_offset 12, -24
	.cfi_offset 3, -32
	movq	%rdi, -56(%rbp)
	movq	%rsi, -64(%rbp)
	movq	%rdx, -72(%rbp)
	movq	%rcx, -80(%rbp)
	movq	%fs:40, %rax
	movq	%rax, -24(%rbp)
	xorl	%eax, %eax
	cmpq	$0, -64(%rbp)
	jne	.L305
	movq	-56(%rbp), %rax
	movq	%rax, %rdi
	call	_ZNSt8_Rb_treeIiSt4pairIKicESt10_Select1stIS2_ESt4lessIiESaIS2_EE6_M_endEv
	cmpq	%rax, -72(%rbp)
	je	.L305
	movq	-56(%rbp), %rbx
	movq	-72(%rbp), %rax
	movq	%rax, %rdi
	call	_ZNSt8_Rb_treeIiSt4pairIKicESt10_Select1stIS2_ESt4lessIiESaIS2_EE6_S_keyEPKSt18_Rb_tree_node_base
	movq	%rax, %r12
	movq	-80(%rbp), %rax
	movq	%rax, %rdi
	call	_ZNSt8_Rb_treeIiSt4pairIKicESt10_Select1stIS2_ESt4lessIiESaIS2_EE6_S_keyEPKSt13_Rb_tree_nodeIS2_E
	movq	%r12, %rdx
	movq	%rax, %rsi
	movq	%rbx, %rdi
	call	_ZNKSt4lessIiEclERKiS2_
	testb	%al, %al
	je	.L306
.L305:
	movl	$1, %eax
	jmp	.L307
.L306:
	movl	$0, %eax
.L307:
	movb	%al, -33(%rbp)
	movq	-56(%rbp), %rax
	leaq	8(%rax), %rcx
	movzbl	-33(%rbp), %eax
	movq	-72(%rbp), %rdx
	movq	-80(%rbp), %rsi
	movl	%eax, %edi
	call	_ZSt29_Rb_tree_insert_and_rebalancebPSt18_Rb_tree_node_baseS0_RS_@PLT
	movq	-56(%rbp), %rax
	movq	40(%rax), %rax
	leaq	1(%rax), %rdx
	movq	-56(%rbp), %rax
	movq	%rdx, 40(%rax)
	movq	-80(%rbp), %rdx
	leaq	-32(%rbp), %rax
	movq	%rdx, %rsi
	movq	%rax, %rdi
	call	_ZNSt17_Rb_tree_iteratorISt4pairIKicEEC1EPSt18_Rb_tree_node_base
	movq	-32(%rbp), %rax
	movq	-24(%rbp), %rbx
	xorq	%fs:40, %rbx
	je	.L309
	call	__stack_chk_fail@PLT
.L309:
	addq	$64, %rsp
	popq	%rbx
	popq	%r12
	popq	%rbp
	.cfi_def_cfa 7, 8
	ret
	.cfi_endproc
.LFE2758:
	.size	_ZNSt8_Rb_treeIiSt4pairIKicESt10_Select1stIS2_ESt4lessIiESaIS2_EE14_M_insert_nodeEPSt18_Rb_tree_node_baseSA_PSt13_Rb_tree_nodeIS2_E, .-_ZNSt8_Rb_treeIiSt4pairIKicESt10_Select1stIS2_ESt4lessIiESaIS2_EE14_M_insert_nodeEPSt18_Rb_tree_node_baseSA_PSt13_Rb_tree_nodeIS2_E
	.section	.text._ZSt7forwardISt17_Rb_tree_iteratorISt4pairIKicEEEOT_RNSt16remove_referenceIS5_E4typeE,"axG",@progbits,_ZSt7forwardISt17_Rb_tree_iteratorISt4pairIKicEEEOT_RNSt16remove_referenceIS5_E4typeE,comdat
	.weak	_ZSt7forwardISt17_Rb_tree_iteratorISt4pairIKicEEEOT_RNSt16remove_referenceIS5_E4typeE
	.type	_ZSt7forwardISt17_Rb_tree_iteratorISt4pairIKicEEEOT_RNSt16remove_referenceIS5_E4typeE, @function
_ZSt7forwardISt17_Rb_tree_iteratorISt4pairIKicEEEOT_RNSt16remove_referenceIS5_E4typeE:
.LFB2760:
	.cfi_startproc
	pushq	%rbp
	.cfi_def_cfa_offset 16
	.cfi_offset 6, -16
	movq	%rsp, %rbp
	.cfi_def_cfa_register 6
	movq	%rdi, -8(%rbp)
	movq	-8(%rbp), %rax
	popq	%rbp
	.cfi_def_cfa 7, 8
	ret
	.cfi_endproc
.LFE2760:
	.size	_ZSt7forwardISt17_Rb_tree_iteratorISt4pairIKicEEEOT_RNSt16remove_referenceIS5_E4typeE, .-_ZSt7forwardISt17_Rb_tree_iteratorISt4pairIKicEEEOT_RNSt16remove_referenceIS5_E4typeE
	.section	.text._ZNSt4pairISt17_Rb_tree_iteratorIS_IKicEEbEC2IS3_bLb1EEEOT_OT0_,"axG",@progbits,_ZNSt4pairISt17_Rb_tree_iteratorIS_IKicEEbEC5IS3_bLb1EEEOT_OT0_,comdat
	.align 2
	.weak	_ZNSt4pairISt17_Rb_tree_iteratorIS_IKicEEbEC2IS3_bLb1EEEOT_OT0_
	.type	_ZNSt4pairISt17_Rb_tree_iteratorIS_IKicEEbEC2IS3_bLb1EEEOT_OT0_, @function
_ZNSt4pairISt17_Rb_tree_iteratorIS_IKicEEbEC2IS3_bLb1EEEOT_OT0_:
.LFB2761:
	.cfi_startproc
	pushq	%rbp
	.cfi_def_cfa_offset 16
	.cfi_offset 6, -16
	movq	%rsp, %rbp
	.cfi_def_cfa_register 6
	subq	$32, %rsp
	movq	%rdi, -8(%rbp)
	movq	%rsi, -16(%rbp)
	movq	%rdx, -24(%rbp)
	movq	-16(%rbp), %rax
	movq	%rax, %rdi
	call	_ZSt7forwardISt17_Rb_tree_iteratorISt4pairIKicEEEOT_RNSt16remove_referenceIS5_E4typeE
	movq	%rax, %rdx
	movq	-8(%rbp), %rax
	movq	(%rdx), %rdx
	movq	%rdx, (%rax)
	movq	-24(%rbp), %rax
	movq	%rax, %rdi
	call	_ZSt7forwardIbEOT_RNSt16remove_referenceIS0_E4typeE
	movzbl	(%rax), %edx
	movq	-8(%rbp), %rax
	movb	%dl, 8(%rax)
	nop
	leave
	.cfi_def_cfa 7, 8
	ret
	.cfi_endproc
.LFE2761:
	.size	_ZNSt4pairISt17_Rb_tree_iteratorIS_IKicEEbEC2IS3_bLb1EEEOT_OT0_, .-_ZNSt4pairISt17_Rb_tree_iteratorIS_IKicEEbEC2IS3_bLb1EEEOT_OT0_
	.weak	_ZNSt4pairISt17_Rb_tree_iteratorIS_IKicEEbEC1IS3_bLb1EEEOT_OT0_
	.set	_ZNSt4pairISt17_Rb_tree_iteratorIS_IKicEEbEC1IS3_bLb1EEEOT_OT0_,_ZNSt4pairISt17_Rb_tree_iteratorIS_IKicEEbEC2IS3_bLb1EEEOT_OT0_
	.section	.text._ZNSt17_Rb_tree_iteratorISt4pairIKicEEC2EPSt18_Rb_tree_node_base,"axG",@progbits,_ZNSt17_Rb_tree_iteratorISt4pairIKicEEC5EPSt18_Rb_tree_node_base,comdat
	.align 2
	.weak	_ZNSt17_Rb_tree_iteratorISt4pairIKicEEC2EPSt18_Rb_tree_node_base
	.type	_ZNSt17_Rb_tree_iteratorISt4pairIKicEEC2EPSt18_Rb_tree_node_base, @function
_ZNSt17_Rb_tree_iteratorISt4pairIKicEEC2EPSt18_Rb_tree_node_base:
.LFB2764:
	.cfi_startproc
	pushq	%rbp
	.cfi_def_cfa_offset 16
	.cfi_offset 6, -16
	movq	%rsp, %rbp
	.cfi_def_cfa_register 6
	movq	%rdi, -8(%rbp)
	movq	%rsi, -16(%rbp)
	movq	-8(%rbp), %rax
	movq	-16(%rbp), %rdx
	movq	%rdx, (%rax)
	nop
	popq	%rbp
	.cfi_def_cfa 7, 8
	ret
	.cfi_endproc
.LFE2764:
	.size	_ZNSt17_Rb_tree_iteratorISt4pairIKicEEC2EPSt18_Rb_tree_node_base, .-_ZNSt17_Rb_tree_iteratorISt4pairIKicEEC2EPSt18_Rb_tree_node_base
	.weak	_ZNSt17_Rb_tree_iteratorISt4pairIKicEEC1EPSt18_Rb_tree_node_base
	.set	_ZNSt17_Rb_tree_iteratorISt4pairIKicEEC1EPSt18_Rb_tree_node_base,_ZNSt17_Rb_tree_iteratorISt4pairIKicEEC2EPSt18_Rb_tree_node_base
	.section	.text._ZN9__gnu_cxx16__aligned_membufISt4pairIKicEE6_M_ptrEv,"axG",@progbits,_ZN9__gnu_cxx16__aligned_membufISt4pairIKicEE6_M_ptrEv,comdat
	.align 2
	.weak	_ZN9__gnu_cxx16__aligned_membufISt4pairIKicEE6_M_ptrEv
	.type	_ZN9__gnu_cxx16__aligned_membufISt4pairIKicEE6_M_ptrEv, @function
_ZN9__gnu_cxx16__aligned_membufISt4pairIKicEE6_M_ptrEv:
.LFB2766:
	.cfi_startproc
	pushq	%rbp
	.cfi_def_cfa_offset 16
	.cfi_offset 6, -16
	movq	%rsp, %rbp
	.cfi_def_cfa_register 6
	subq	$16, %rsp
	movq	%rdi, -8(%rbp)
	movq	-8(%rbp), %rax
	movq	%rax, %rdi
	call	_ZN9__gnu_cxx16__aligned_membufISt4pairIKicEE7_M_addrEv
	leave
	.cfi_def_cfa 7, 8
	ret
	.cfi_endproc
.LFE2766:
	.size	_ZN9__gnu_cxx16__aligned_membufISt4pairIKicEE6_M_ptrEv, .-_ZN9__gnu_cxx16__aligned_membufISt4pairIKicEE6_M_ptrEv
	.section	.text._ZNSt8_Rb_treeIiSt4pairIKicESt10_Select1stIS2_ESt4lessIiESaIS2_EE6_M_endEv,"axG",@progbits,_ZNSt8_Rb_treeIiSt4pairIKicESt10_Select1stIS2_ESt4lessIiESaIS2_EE6_M_endEv,comdat
	.align 2
	.weak	_ZNSt8_Rb_treeIiSt4pairIKicESt10_Select1stIS2_ESt4lessIiESaIS2_EE6_M_endEv
	.type	_ZNSt8_Rb_treeIiSt4pairIKicESt10_Select1stIS2_ESt4lessIiESaIS2_EE6_M_endEv, @function
_ZNSt8_Rb_treeIiSt4pairIKicESt10_Select1stIS2_ESt4lessIiESaIS2_EE6_M_endEv:
.LFB2767:
	.cfi_startproc
	pushq	%rbp
	.cfi_def_cfa_offset 16
	.cfi_offset 6, -16
	movq	%rsp, %rbp
	.cfi_def_cfa_register 6
	movq	%rdi, -8(%rbp)
	movq	-8(%rbp), %rax
	addq	$8, %rax
	popq	%rbp
	.cfi_def_cfa 7, 8
	ret
	.cfi_endproc
.LFE2767:
	.size	_ZNSt8_Rb_treeIiSt4pairIKicESt10_Select1stIS2_ESt4lessIiESaIS2_EE6_M_endEv, .-_ZNSt8_Rb_treeIiSt4pairIKicESt10_Select1stIS2_ESt4lessIiESaIS2_EE6_M_endEv
	.section	.text._ZNSt8_Rb_treeIiSt4pairIKicESt10_Select1stIS2_ESt4lessIiESaIS2_EE14_M_lower_boundEPSt13_Rb_tree_nodeIS2_EPSt18_Rb_tree_node_baseRS1_,"axG",@progbits,_ZNSt8_Rb_treeIiSt4pairIKicESt10_Select1stIS2_ESt4lessIiESaIS2_EE14_M_lower_boundEPSt13_Rb_tree_nodeIS2_EPSt18_Rb_tree_node_baseRS1_,comdat
	.align 2
	.weak	_ZNSt8_Rb_treeIiSt4pairIKicESt10_Select1stIS2_ESt4lessIiESaIS2_EE14_M_lower_boundEPSt13_Rb_tree_nodeIS2_EPSt18_Rb_tree_node_baseRS1_
	.type	_ZNSt8_Rb_treeIiSt4pairIKicESt10_Select1stIS2_ESt4lessIiESaIS2_EE14_M_lower_boundEPSt13_Rb_tree_nodeIS2_EPSt18_Rb_tree_node_baseRS1_, @function
_ZNSt8_Rb_treeIiSt4pairIKicESt10_Select1stIS2_ESt4lessIiESaIS2_EE14_M_lower_boundEPSt13_Rb_tree_nodeIS2_EPSt18_Rb_tree_node_baseRS1_:
.LFB2768:
	.cfi_startproc
	pushq	%rbp
	.cfi_def_cfa_offset 16
	.cfi_offset 6, -16
	movq	%rsp, %rbp
	.cfi_def_cfa_register 6
	pushq	%rbx
	subq	$56, %rsp
	.cfi_offset 3, -24
	movq	%rdi, -40(%rbp)
	movq	%rsi, -48(%rbp)
	movq	%rdx, -56(%rbp)
	movq	%rcx, -64(%rbp)
	movq	%fs:40, %rax
	movq	%rax, -24(%rbp)
	xorl	%eax, %eax
.L322:
	cmpq	$0, -48(%rbp)
	je	.L319
	movq	-40(%rbp), %rbx
	movq	-48(%rbp), %rax
	movq	%rax, %rdi
	call	_ZNSt8_Rb_treeIiSt4pairIKicESt10_Select1stIS2_ESt4lessIiESaIS2_EE6_S_keyEPKSt13_Rb_tree_nodeIS2_E
	movq	%rax, %rcx
	movq	-64(%rbp), %rax
	movq	%rax, %rdx
	movq	%rcx, %rsi
	movq	%rbx, %rdi
	call	_ZNKSt4lessIiEclERKiS2_
	xorl	$1, %eax
	testb	%al, %al
	je	.L320
	movq	-48(%rbp), %rax
	movq	%rax, -56(%rbp)
	movq	-48(%rbp), %rax
	movq	%rax, %rdi
	call	_ZNSt8_Rb_treeIiSt4pairIKicESt10_Select1stIS2_ESt4lessIiESaIS2_EE7_S_leftEPSt18_Rb_tree_node_base
	movq	%rax, -48(%rbp)
	jmp	.L322
.L320:
	movq	-48(%rbp), %rax
	movq	%rax, %rdi
	call	_ZNSt8_Rb_treeIiSt4pairIKicESt10_Select1stIS2_ESt4lessIiESaIS2_EE8_S_rightEPSt18_Rb_tree_node_base
	movq	%rax, -48(%rbp)
	jmp	.L322
.L319:
	movq	-56(%rbp), %rdx
	leaq	-32(%rbp), %rax
	movq	%rdx, %rsi
	movq	%rax, %rdi
	call	_ZNSt17_Rb_tree_iteratorISt4pairIKicEEC1EPSt18_Rb_tree_node_base
	movq	-32(%rbp), %rax
	movq	-24(%rbp), %rbx
	xorq	%fs:40, %rbx
	je	.L324
	call	__stack_chk_fail@PLT
.L324:
	addq	$56, %rsp
	popq	%rbx
	popq	%rbp
	.cfi_def_cfa 7, 8
	ret
	.cfi_endproc
.LFE2768:
	.size	_ZNSt8_Rb_treeIiSt4pairIKicESt10_Select1stIS2_ESt4lessIiESaIS2_EE14_M_lower_boundEPSt13_Rb_tree_nodeIS2_EPSt18_Rb_tree_node_baseRS1_, .-_ZNSt8_Rb_treeIiSt4pairIKicESt10_Select1stIS2_ESt4lessIiESaIS2_EE14_M_lower_boundEPSt13_Rb_tree_nodeIS2_EPSt18_Rb_tree_node_baseRS1_
	.section	.text._ZNSt8_Rb_treeIiSt4pairIKicESt10_Select1stIS2_ESt4lessIiESaIS2_EE6_S_keyEPKSt18_Rb_tree_node_base,"axG",@progbits,_ZNSt8_Rb_treeIiSt4pairIKicESt10_Select1stIS2_ESt4lessIiESaIS2_EE6_S_keyEPKSt18_Rb_tree_node_base,comdat
	.weak	_ZNSt8_Rb_treeIiSt4pairIKicESt10_Select1stIS2_ESt4lessIiESaIS2_EE6_S_keyEPKSt18_Rb_tree_node_base
	.type	_ZNSt8_Rb_treeIiSt4pairIKicESt10_Select1stIS2_ESt4lessIiESaIS2_EE6_S_keyEPKSt18_Rb_tree_node_base, @function
_ZNSt8_Rb_treeIiSt4pairIKicESt10_Select1stIS2_ESt4lessIiESaIS2_EE6_S_keyEPKSt18_Rb_tree_node_base:
.LFB2769:
	.cfi_startproc
	pushq	%rbp
	.cfi_def_cfa_offset 16
	.cfi_offset 6, -16
	movq	%rsp, %rbp
	.cfi_def_cfa_register 6
	subq	$32, %rsp
	movq	%rdi, -24(%rbp)
	movq	%fs:40, %rax
	movq	%rax, -8(%rbp)
	xorl	%eax, %eax
	movq	-24(%rbp), %rax
	movq	%rax, %rdi
	call	_ZNSt8_Rb_treeIiSt4pairIKicESt10_Select1stIS2_ESt4lessIiESaIS2_EE8_S_valueEPKSt18_Rb_tree_node_base
	movq	%rax, %rdx
	leaq	-9(%rbp), %rax
	movq	%rdx, %rsi
	movq	%rax, %rdi
	call	_ZNKSt10_Select1stISt4pairIKicEEclERKS2_
	nop
	movq	-8(%rbp), %rcx
	xorq	%fs:40, %rcx
	je	.L327
	call	__stack_chk_fail@PLT
.L327:
	leave
	.cfi_def_cfa 7, 8
	ret
	.cfi_endproc
.LFE2769:
	.size	_ZNSt8_Rb_treeIiSt4pairIKicESt10_Select1stIS2_ESt4lessIiESaIS2_EE6_S_keyEPKSt18_Rb_tree_node_base, .-_ZNSt8_Rb_treeIiSt4pairIKicESt10_Select1stIS2_ESt4lessIiESaIS2_EE6_S_keyEPKSt18_Rb_tree_node_base
	.section	.text._ZNKSt4lessIiEclERKiS2_,"axG",@progbits,_ZNKSt4lessIiEclERKiS2_,comdat
	.align 2
	.weak	_ZNKSt4lessIiEclERKiS2_
	.type	_ZNKSt4lessIiEclERKiS2_, @function
_ZNKSt4lessIiEclERKiS2_:
.LFB2770:
	.cfi_startproc
	pushq	%rbp
	.cfi_def_cfa_offset 16
	.cfi_offset 6, -16
	movq	%rsp, %rbp
	.cfi_def_cfa_register 6
	movq	%rdi, -8(%rbp)
	movq	%rsi, -16(%rbp)
	movq	%rdx, -24(%rbp)
	movq	-16(%rbp), %rax
	movl	(%rax), %edx
	movq	-24(%rbp), %rax
	movl	(%rax), %eax
	cmpl	%eax, %edx
	setl	%al
	popq	%rbp
	.cfi_def_cfa 7, 8
	ret
	.cfi_endproc
.LFE2770:
	.size	_ZNKSt4lessIiEclERKiS2_, .-_ZNKSt4lessIiEclERKiS2_
	.section	.text._ZNSt8_Rb_treeIiSt4pairIKicESt10_Select1stIS2_ESt4lessIiESaIS2_EE11equal_rangeERS1_,"axG",@progbits,_ZNSt8_Rb_treeIiSt4pairIKicESt10_Select1stIS2_ESt4lessIiESaIS2_EE11equal_rangeERS1_,comdat
	.align 2
	.weak	_ZNSt8_Rb_treeIiSt4pairIKicESt10_Select1stIS2_ESt4lessIiESaIS2_EE11equal_rangeERS1_
	.type	_ZNSt8_Rb_treeIiSt4pairIKicESt10_Select1stIS2_ESt4lessIiESaIS2_EE11equal_rangeERS1_, @function
_ZNSt8_Rb_treeIiSt4pairIKicESt10_Select1stIS2_ESt4lessIiESaIS2_EE11equal_rangeERS1_:
.LFB2771:
	.cfi_startproc
	pushq	%rbp
	.cfi_def_cfa_offset 16
	.cfi_offset 6, -16
	movq	%rsp, %rbp
	.cfi_def_cfa_register 6
	pushq	%rbx
	subq	$104, %rsp
	.cfi_offset 3, -24
	movq	%rdi, -104(%rbp)
	movq	%rsi, -112(%rbp)
	movq	%fs:40, %rax
	movq	%rax, -24(%rbp)
	xorl	%eax, %eax
	movq	-104(%rbp), %rax
	movq	%rax, %rdi
	call	_ZNSt8_Rb_treeIiSt4pairIKicESt10_Select1stIS2_ESt4lessIiESaIS2_EE8_M_beginEv
	movq	%rax, -80(%rbp)
	movq	-104(%rbp), %rax
	movq	%rax, %rdi
	call	_ZNSt8_Rb_treeIiSt4pairIKicESt10_Select1stIS2_ESt4lessIiESaIS2_EE6_M_endEv
	movq	%rax, -72(%rbp)
.L336:
	cmpq	$0, -80(%rbp)
	je	.L331
	movq	-104(%rbp), %rbx
	movq	-80(%rbp), %rax
	movq	%rax, %rdi
	call	_ZNSt8_Rb_treeIiSt4pairIKicESt10_Select1stIS2_ESt4lessIiESaIS2_EE6_S_keyEPKSt13_Rb_tree_nodeIS2_E
	movq	%rax, %rcx
	movq	-112(%rbp), %rax
	movq	%rax, %rdx
	movq	%rcx, %rsi
	movq	%rbx, %rdi
	call	_ZNKSt4lessIiEclERKiS2_
	testb	%al, %al
	je	.L332
	movq	-80(%rbp), %rax
	movq	%rax, %rdi
	call	_ZNSt8_Rb_treeIiSt4pairIKicESt10_Select1stIS2_ESt4lessIiESaIS2_EE8_S_rightEPSt18_Rb_tree_node_base
	movq	%rax, -80(%rbp)
	jmp	.L336
.L332:
	movq	-104(%rbp), %rbx
	movq	-80(%rbp), %rax
	movq	%rax, %rdi
	call	_ZNSt8_Rb_treeIiSt4pairIKicESt10_Select1stIS2_ESt4lessIiESaIS2_EE6_S_keyEPKSt13_Rb_tree_nodeIS2_E
	movq	%rax, %rdx
	movq	-112(%rbp), %rax
	movq	%rax, %rsi
	movq	%rbx, %rdi
	call	_ZNKSt4lessIiEclERKiS2_
	testb	%al, %al
	je	.L334
	movq	-80(%rbp), %rax
	movq	%rax, -72(%rbp)
	movq	-80(%rbp), %rax
	movq	%rax, %rdi
	call	_ZNSt8_Rb_treeIiSt4pairIKicESt10_Select1stIS2_ESt4lessIiESaIS2_EE7_S_leftEPSt18_Rb_tree_node_base
	movq	%rax, -80(%rbp)
	jmp	.L336
.L334:
	movq	-80(%rbp), %rax
	movq	%rax, -64(%rbp)
	movq	-72(%rbp), %rax
	movq	%rax, -56(%rbp)
	movq	-80(%rbp), %rax
	movq	%rax, -72(%rbp)
	movq	-80(%rbp), %rax
	movq	%rax, %rdi
	call	_ZNSt8_Rb_treeIiSt4pairIKicESt10_Select1stIS2_ESt4lessIiESaIS2_EE7_S_leftEPSt18_Rb_tree_node_base
	movq	%rax, -80(%rbp)
	movq	-64(%rbp), %rax
	movq	%rax, %rdi
	call	_ZNSt8_Rb_treeIiSt4pairIKicESt10_Select1stIS2_ESt4lessIiESaIS2_EE8_S_rightEPSt18_Rb_tree_node_base
	movq	%rax, -64(%rbp)
	movq	-112(%rbp), %rcx
	movq	-56(%rbp), %rdx
	movq	-64(%rbp), %rsi
	movq	-104(%rbp), %rax
	movq	%rax, %rdi
	call	_ZNSt8_Rb_treeIiSt4pairIKicESt10_Select1stIS2_ESt4lessIiESaIS2_EE14_M_upper_boundEPSt13_Rb_tree_nodeIS2_EPSt18_Rb_tree_node_baseRS1_
	movq	%rax, -88(%rbp)
	movq	-112(%rbp), %rcx
	movq	-72(%rbp), %rdx
	movq	-80(%rbp), %rsi
	movq	-104(%rbp), %rax
	movq	%rax, %rdi
	call	_ZNSt8_Rb_treeIiSt4pairIKicESt10_Select1stIS2_ESt4lessIiESaIS2_EE14_M_lower_boundEPSt13_Rb_tree_nodeIS2_EPSt18_Rb_tree_node_baseRS1_
	movq	%rax, -96(%rbp)
	leaq	-88(%rbp), %rdx
	leaq	-96(%rbp), %rcx
	leaq	-48(%rbp), %rax
	movq	%rcx, %rsi
	movq	%rax, %rdi
	call	_ZNSt4pairISt17_Rb_tree_iteratorIS_IKicEES3_EC1IS3_S3_Lb1EEEOT_OT0_
	movq	-48(%rbp), %rax
	movq	-40(%rbp), %rdx
	jmp	.L335
.L331:
	movq	-72(%rbp), %rdx
	leaq	-88(%rbp), %rax
	movq	%rdx, %rsi
	movq	%rax, %rdi
	call	_ZNSt17_Rb_tree_iteratorISt4pairIKicEEC1EPSt18_Rb_tree_node_base
	movq	-72(%rbp), %rdx
	leaq	-96(%rbp), %rax
	movq	%rdx, %rsi
	movq	%rax, %rdi
	call	_ZNSt17_Rb_tree_iteratorISt4pairIKicEEC1EPSt18_Rb_tree_node_base
	leaq	-88(%rbp), %rdx
	leaq	-96(%rbp), %rcx
	leaq	-48(%rbp), %rax
	movq	%rcx, %rsi
	movq	%rax, %rdi
	call	_ZNSt4pairISt17_Rb_tree_iteratorIS_IKicEES3_EC1IS3_S3_Lb1EEEOT_OT0_
	movq	-48(%rbp), %rax
	movq	-40(%rbp), %rdx
.L335:
	movq	-24(%rbp), %rbx
	xorq	%fs:40, %rbx
	je	.L337
	call	__stack_chk_fail@PLT
.L337:
	addq	$104, %rsp
	popq	%rbx
	popq	%rbp
	.cfi_def_cfa 7, 8
	ret
	.cfi_endproc
.LFE2771:
	.size	_ZNSt8_Rb_treeIiSt4pairIKicESt10_Select1stIS2_ESt4lessIiESaIS2_EE11equal_rangeERS1_, .-_ZNSt8_Rb_treeIiSt4pairIKicESt10_Select1stIS2_ESt4lessIiESaIS2_EE11equal_rangeERS1_
	.section	.text._ZNKSt8_Rb_treeIiSt4pairIKicESt10_Select1stIS2_ESt4lessIiESaIS2_EE4sizeEv,"axG",@progbits,_ZNKSt8_Rb_treeIiSt4pairIKicESt10_Select1stIS2_ESt4lessIiESaIS2_EE4sizeEv,comdat
	.align 2
	.weak	_ZNKSt8_Rb_treeIiSt4pairIKicESt10_Select1stIS2_ESt4lessIiESaIS2_EE4sizeEv
	.type	_ZNKSt8_Rb_treeIiSt4pairIKicESt10_Select1stIS2_ESt4lessIiESaIS2_EE4sizeEv, @function
_ZNKSt8_Rb_treeIiSt4pairIKicESt10_Select1stIS2_ESt4lessIiESaIS2_EE4sizeEv:
.LFB2780:
	.cfi_startproc
	pushq	%rbp
	.cfi_def_cfa_offset 16
	.cfi_offset 6, -16
	movq	%rsp, %rbp
	.cfi_def_cfa_register 6
	movq	%rdi, -8(%rbp)
	movq	-8(%rbp), %rax
	movq	40(%rax), %rax
	popq	%rbp
	.cfi_def_cfa 7, 8
	ret
	.cfi_endproc
.LFE2780:
	.size	_ZNKSt8_Rb_treeIiSt4pairIKicESt10_Select1stIS2_ESt4lessIiESaIS2_EE4sizeEv, .-_ZNKSt8_Rb_treeIiSt4pairIKicESt10_Select1stIS2_ESt4lessIiESaIS2_EE4sizeEv
	.section	.text._ZNSt23_Rb_tree_const_iteratorISt4pairIKicEEC2ERKSt17_Rb_tree_iteratorIS2_E,"axG",@progbits,_ZNSt23_Rb_tree_const_iteratorISt4pairIKicEEC5ERKSt17_Rb_tree_iteratorIS2_E,comdat
	.align 2
	.weak	_ZNSt23_Rb_tree_const_iteratorISt4pairIKicEEC2ERKSt17_Rb_tree_iteratorIS2_E
	.type	_ZNSt23_Rb_tree_const_iteratorISt4pairIKicEEC2ERKSt17_Rb_tree_iteratorIS2_E, @function
_ZNSt23_Rb_tree_const_iteratorISt4pairIKicEEC2ERKSt17_Rb_tree_iteratorIS2_E:
.LFB2782:
	.cfi_startproc
	pushq	%rbp
	.cfi_def_cfa_offset 16
	.cfi_offset 6, -16
	movq	%rsp, %rbp
	.cfi_def_cfa_register 6
	movq	%rdi, -8(%rbp)
	movq	%rsi, -16(%rbp)
	movq	-16(%rbp), %rax
	movq	(%rax), %rdx
	movq	-8(%rbp), %rax
	movq	%rdx, (%rax)
	nop
	popq	%rbp
	.cfi_def_cfa 7, 8
	ret
	.cfi_endproc
.LFE2782:
	.size	_ZNSt23_Rb_tree_const_iteratorISt4pairIKicEEC2ERKSt17_Rb_tree_iteratorIS2_E, .-_ZNSt23_Rb_tree_const_iteratorISt4pairIKicEEC2ERKSt17_Rb_tree_iteratorIS2_E
	.weak	_ZNSt23_Rb_tree_const_iteratorISt4pairIKicEEC1ERKSt17_Rb_tree_iteratorIS2_E
	.set	_ZNSt23_Rb_tree_const_iteratorISt4pairIKicEEC1ERKSt17_Rb_tree_iteratorIS2_E,_ZNSt23_Rb_tree_const_iteratorISt4pairIKicEEC2ERKSt17_Rb_tree_iteratorIS2_E
	.section	.text._ZNSt8_Rb_treeIiSt4pairIKicESt10_Select1stIS2_ESt4lessIiESaIS2_EE12_M_erase_auxESt23_Rb_tree_const_iteratorIS2_ESA_,"axG",@progbits,_ZNSt8_Rb_treeIiSt4pairIKicESt10_Select1stIS2_ESt4lessIiESaIS2_EE12_M_erase_auxESt23_Rb_tree_const_iteratorIS2_ESA_,comdat
	.align 2
	.weak	_ZNSt8_Rb_treeIiSt4pairIKicESt10_Select1stIS2_ESt4lessIiESaIS2_EE12_M_erase_auxESt23_Rb_tree_const_iteratorIS2_ESA_
	.type	_ZNSt8_Rb_treeIiSt4pairIKicESt10_Select1stIS2_ESt4lessIiESaIS2_EE12_M_erase_auxESt23_Rb_tree_const_iteratorIS2_ESA_, @function
_ZNSt8_Rb_treeIiSt4pairIKicESt10_Select1stIS2_ESt4lessIiESaIS2_EE12_M_erase_auxESt23_Rb_tree_const_iteratorIS2_ESA_:
.LFB2784:
	.cfi_startproc
	pushq	%rbp
	.cfi_def_cfa_offset 16
	.cfi_offset 6, -16
	movq	%rsp, %rbp
	.cfi_def_cfa_register 6
	subq	$80, %rsp
	movq	%rdi, -56(%rbp)
	movq	%rsi, -64(%rbp)
	movq	%rdx, -72(%rbp)
	movq	%fs:40, %rax
	movq	%rax, -8(%rbp)
	xorl	%eax, %eax
	movq	-56(%rbp), %rax
	movq	%rax, %rdi
	call	_ZNSt8_Rb_treeIiSt4pairIKicESt10_Select1stIS2_ESt4lessIiESaIS2_EE5beginEv
	movq	%rax, -40(%rbp)
	leaq	-40(%rbp), %rdx
	leaq	-32(%rbp), %rax
	movq	%rdx, %rsi
	movq	%rax, %rdi
	call	_ZNSt23_Rb_tree_const_iteratorISt4pairIKicEEC1ERKSt17_Rb_tree_iteratorIS2_E
	leaq	-32(%rbp), %rdx
	leaq	-64(%rbp), %rax
	movq	%rdx, %rsi
	movq	%rax, %rdi
	call	_ZNKSt23_Rb_tree_const_iteratorISt4pairIKicEEeqERKS3_
	testb	%al, %al
	je	.L342
	movq	-56(%rbp), %rax
	movq	%rax, %rdi
	call	_ZNSt8_Rb_treeIiSt4pairIKicESt10_Select1stIS2_ESt4lessIiESaIS2_EE3endEv
	movq	%rax, -24(%rbp)
	leaq	-24(%rbp), %rdx
	leaq	-16(%rbp), %rax
	movq	%rdx, %rsi
	movq	%rax, %rdi
	call	_ZNSt23_Rb_tree_const_iteratorISt4pairIKicEEC1ERKSt17_Rb_tree_iteratorIS2_E
	leaq	-16(%rbp), %rdx
	leaq	-72(%rbp), %rax
	movq	%rdx, %rsi
	movq	%rax, %rdi
	call	_ZNKSt23_Rb_tree_const_iteratorISt4pairIKicEEeqERKS3_
	testb	%al, %al
	je	.L342
	movl	$1, %eax
	jmp	.L343
.L342:
	movl	$0, %eax
.L343:
	testb	%al, %al
	je	.L344
	movq	-56(%rbp), %rax
	movq	%rax, %rdi
	call	_ZNSt8_Rb_treeIiSt4pairIKicESt10_Select1stIS2_ESt4lessIiESaIS2_EE5clearEv
	jmp	.L347
.L344:
	leaq	-72(%rbp), %rdx
	leaq	-64(%rbp), %rax
	movq	%rdx, %rsi
	movq	%rax, %rdi
	call	_ZNKSt23_Rb_tree_const_iteratorISt4pairIKicEEneERKS3_
	testb	%al, %al
	je	.L347
	leaq	-64(%rbp), %rax
	movl	$0, %esi
	movq	%rax, %rdi
	call	_ZNSt23_Rb_tree_const_iteratorISt4pairIKicEEppEi
	movq	%rax, %rdx
	movq	-56(%rbp), %rax
	movq	%rdx, %rsi
	movq	%rax, %rdi
	call	_ZNSt8_Rb_treeIiSt4pairIKicESt10_Select1stIS2_ESt4lessIiESaIS2_EE12_M_erase_auxESt23_Rb_tree_const_iteratorIS2_E
	jmp	.L344
.L347:
	nop
	movq	-8(%rbp), %rax
	xorq	%fs:40, %rax
	je	.L346
	call	__stack_chk_fail@PLT
.L346:
	leave
	.cfi_def_cfa 7, 8
	ret
	.cfi_endproc
.LFE2784:
	.size	_ZNSt8_Rb_treeIiSt4pairIKicESt10_Select1stIS2_ESt4lessIiESaIS2_EE12_M_erase_auxESt23_Rb_tree_const_iteratorIS2_ESA_, .-_ZNSt8_Rb_treeIiSt4pairIKicESt10_Select1stIS2_ESt4lessIiESaIS2_EE12_M_erase_auxESt23_Rb_tree_const_iteratorIS2_ESA_
	.section	.text._ZNSt8_Rb_treeIcSt4pairIKciESt10_Select1stIS2_ESt4lessIcESaIS2_EE15_M_destroy_nodeEPSt13_Rb_tree_nodeIS2_E,"axG",@progbits,_ZNSt8_Rb_treeIcSt4pairIKciESt10_Select1stIS2_ESt4lessIcESaIS2_EE15_M_destroy_nodeEPSt13_Rb_tree_nodeIS2_E,comdat
	.align 2
	.weak	_ZNSt8_Rb_treeIcSt4pairIKciESt10_Select1stIS2_ESt4lessIcESaIS2_EE15_M_destroy_nodeEPSt13_Rb_tree_nodeIS2_E
	.type	_ZNSt8_Rb_treeIcSt4pairIKciESt10_Select1stIS2_ESt4lessIcESaIS2_EE15_M_destroy_nodeEPSt13_Rb_tree_nodeIS2_E, @function
_ZNSt8_Rb_treeIcSt4pairIKciESt10_Select1stIS2_ESt4lessIcESaIS2_EE15_M_destroy_nodeEPSt13_Rb_tree_nodeIS2_E:
.LFB2819:
	.cfi_startproc
	.cfi_personality 0x9b,DW.ref.__gxx_personality_v0
	.cfi_lsda 0x1b,.LLSDA2819
	pushq	%rbp
	.cfi_def_cfa_offset 16
	.cfi_offset 6, -16
	movq	%rsp, %rbp
	.cfi_def_cfa_register 6
	pushq	%rbx
	subq	$24, %rsp
	.cfi_offset 3, -24
	movq	%rdi, -24(%rbp)
	movq	%rsi, -32(%rbp)
	movq	-32(%rbp), %rax
	movq	%rax, %rdi
	call	_ZNSt13_Rb_tree_nodeISt4pairIKciEE9_M_valptrEv
	movq	%rax, %rbx
	movq	-24(%rbp), %rax
	movq	%rax, %rdi
	call	_ZNSt8_Rb_treeIcSt4pairIKciESt10_Select1stIS2_ESt4lessIcESaIS2_EE21_M_get_Node_allocatorEv
	movq	%rbx, %rsi
	movq	%rax, %rdi
	call	_ZNSt16allocator_traitsISaISt13_Rb_tree_nodeISt4pairIKciEEEE7destroyIS3_EEvRS5_PT_
	nop
	addq	$24, %rsp
	popq	%rbx
	popq	%rbp
	.cfi_def_cfa 7, 8
	ret
	.cfi_endproc
.LFE2819:
	.section	.gcc_except_table
.LLSDA2819:
	.byte	0xff
	.byte	0xff
	.byte	0x1
	.uleb128 .LLSDACSE2819-.LLSDACSB2819
.LLSDACSB2819:
.LLSDACSE2819:
	.section	.text._ZNSt8_Rb_treeIcSt4pairIKciESt10_Select1stIS2_ESt4lessIcESaIS2_EE15_M_destroy_nodeEPSt13_Rb_tree_nodeIS2_E,"axG",@progbits,_ZNSt8_Rb_treeIcSt4pairIKciESt10_Select1stIS2_ESt4lessIcESaIS2_EE15_M_destroy_nodeEPSt13_Rb_tree_nodeIS2_E,comdat
	.size	_ZNSt8_Rb_treeIcSt4pairIKciESt10_Select1stIS2_ESt4lessIcESaIS2_EE15_M_destroy_nodeEPSt13_Rb_tree_nodeIS2_E, .-_ZNSt8_Rb_treeIcSt4pairIKciESt10_Select1stIS2_ESt4lessIcESaIS2_EE15_M_destroy_nodeEPSt13_Rb_tree_nodeIS2_E
	.section	.text._ZNSt8_Rb_treeIcSt4pairIKciESt10_Select1stIS2_ESt4lessIcESaIS2_EE11_M_put_nodeEPSt13_Rb_tree_nodeIS2_E,"axG",@progbits,_ZNSt8_Rb_treeIcSt4pairIKciESt10_Select1stIS2_ESt4lessIcESaIS2_EE11_M_put_nodeEPSt13_Rb_tree_nodeIS2_E,comdat
	.align 2
	.weak	_ZNSt8_Rb_treeIcSt4pairIKciESt10_Select1stIS2_ESt4lessIcESaIS2_EE11_M_put_nodeEPSt13_Rb_tree_nodeIS2_E
	.type	_ZNSt8_Rb_treeIcSt4pairIKciESt10_Select1stIS2_ESt4lessIcESaIS2_EE11_M_put_nodeEPSt13_Rb_tree_nodeIS2_E, @function
_ZNSt8_Rb_treeIcSt4pairIKciESt10_Select1stIS2_ESt4lessIcESaIS2_EE11_M_put_nodeEPSt13_Rb_tree_nodeIS2_E:
.LFB2820:
	.cfi_startproc
	.cfi_personality 0x9b,DW.ref.__gxx_personality_v0
	.cfi_lsda 0x1b,.LLSDA2820
	pushq	%rbp
	.cfi_def_cfa_offset 16
	.cfi_offset 6, -16
	movq	%rsp, %rbp
	.cfi_def_cfa_register 6
	subq	$16, %rsp
	movq	%rdi, -8(%rbp)
	movq	%rsi, -16(%rbp)
	movq	-8(%rbp), %rax
	movq	%rax, %rdi
	call	_ZNSt8_Rb_treeIcSt4pairIKciESt10_Select1stIS2_ESt4lessIcESaIS2_EE21_M_get_Node_allocatorEv
	movq	%rax, %rcx
	movq	-16(%rbp), %rax
	movl	$1, %edx
	movq	%rax, %rsi
	movq	%rcx, %rdi
	call	_ZNSt16allocator_traitsISaISt13_Rb_tree_nodeISt4pairIKciEEEE10deallocateERS5_PS4_m
	nop
	leave
	.cfi_def_cfa 7, 8
	ret
	.cfi_endproc
.LFE2820:
	.section	.gcc_except_table
.LLSDA2820:
	.byte	0xff
	.byte	0xff
	.byte	0x1
	.uleb128 .LLSDACSE2820-.LLSDACSB2820
.LLSDACSB2820:
.LLSDACSE2820:
	.section	.text._ZNSt8_Rb_treeIcSt4pairIKciESt10_Select1stIS2_ESt4lessIcESaIS2_EE11_M_put_nodeEPSt13_Rb_tree_nodeIS2_E,"axG",@progbits,_ZNSt8_Rb_treeIcSt4pairIKciESt10_Select1stIS2_ESt4lessIcESaIS2_EE11_M_put_nodeEPSt13_Rb_tree_nodeIS2_E,comdat
	.size	_ZNSt8_Rb_treeIcSt4pairIKciESt10_Select1stIS2_ESt4lessIcESaIS2_EE11_M_put_nodeEPSt13_Rb_tree_nodeIS2_E, .-_ZNSt8_Rb_treeIcSt4pairIKciESt10_Select1stIS2_ESt4lessIcESaIS2_EE11_M_put_nodeEPSt13_Rb_tree_nodeIS2_E
	.section	.text._ZNSt8_Rb_treeIcSt4pairIKciESt10_Select1stIS2_ESt4lessIcESaIS2_EE11_M_get_nodeEv,"axG",@progbits,_ZNSt8_Rb_treeIcSt4pairIKciESt10_Select1stIS2_ESt4lessIcESaIS2_EE11_M_get_nodeEv,comdat
	.align 2
	.weak	_ZNSt8_Rb_treeIcSt4pairIKciESt10_Select1stIS2_ESt4lessIcESaIS2_EE11_M_get_nodeEv
	.type	_ZNSt8_Rb_treeIcSt4pairIKciESt10_Select1stIS2_ESt4lessIcESaIS2_EE11_M_get_nodeEv, @function
_ZNSt8_Rb_treeIcSt4pairIKciESt10_Select1stIS2_ESt4lessIcESaIS2_EE11_M_get_nodeEv:
.LFB2821:
	.cfi_startproc
	pushq	%rbp
	.cfi_def_cfa_offset 16
	.cfi_offset 6, -16
	movq	%rsp, %rbp
	.cfi_def_cfa_register 6
	subq	$16, %rsp
	movq	%rdi, -8(%rbp)
	movq	-8(%rbp), %rax
	movq	%rax, %rdi
	call	_ZNSt8_Rb_treeIcSt4pairIKciESt10_Select1stIS2_ESt4lessIcESaIS2_EE21_M_get_Node_allocatorEv
	movl	$1, %esi
	movq	%rax, %rdi
	call	_ZNSt16allocator_traitsISaISt13_Rb_tree_nodeISt4pairIKciEEEE8allocateERS5_m
	leave
	.cfi_def_cfa 7, 8
	ret
	.cfi_endproc
.LFE2821:
	.size	_ZNSt8_Rb_treeIcSt4pairIKciESt10_Select1stIS2_ESt4lessIcESaIS2_EE11_M_get_nodeEv, .-_ZNSt8_Rb_treeIcSt4pairIKciESt10_Select1stIS2_ESt4lessIcESaIS2_EE11_M_get_nodeEv
	.section	.text._ZNSt8_Rb_treeIcSt4pairIKciESt10_Select1stIS2_ESt4lessIcESaIS2_EE17_M_construct_nodeIJRKSt21piecewise_construct_tSt5tupleIJOcEESD_IJEEEEEvPSt13_Rb_tree_nodeIS2_EDpOT_,"axG",@progbits,_ZNSt8_Rb_treeIcSt4pairIKciESt10_Select1stIS2_ESt4lessIcESaIS2_EE17_M_construct_nodeIJRKSt21piecewise_construct_tSt5tupleIJOcEESD_IJEEEEEvPSt13_Rb_tree_nodeIS2_EDpOT_,comdat
	.align 2
	.weak	_ZNSt8_Rb_treeIcSt4pairIKciESt10_Select1stIS2_ESt4lessIcESaIS2_EE17_M_construct_nodeIJRKSt21piecewise_construct_tSt5tupleIJOcEESD_IJEEEEEvPSt13_Rb_tree_nodeIS2_EDpOT_
	.type	_ZNSt8_Rb_treeIcSt4pairIKciESt10_Select1stIS2_ESt4lessIcESaIS2_EE17_M_construct_nodeIJRKSt21piecewise_construct_tSt5tupleIJOcEESD_IJEEEEEvPSt13_Rb_tree_nodeIS2_EDpOT_, @function
_ZNSt8_Rb_treeIcSt4pairIKciESt10_Select1stIS2_ESt4lessIcESaIS2_EE17_M_construct_nodeIJRKSt21piecewise_construct_tSt5tupleIJOcEESD_IJEEEEEvPSt13_Rb_tree_nodeIS2_EDpOT_:
.LFB2822:
	.cfi_startproc
	.cfi_personality 0x9b,DW.ref.__gxx_personality_v0
	.cfi_lsda 0x1b,.LLSDA2822
	pushq	%rbp
	.cfi_def_cfa_offset 16
	.cfi_offset 6, -16
	movq	%rsp, %rbp
	.cfi_def_cfa_register 6
	pushq	%r14
	pushq	%r13
	pushq	%r12
	pushq	%rbx
	subq	$48, %rsp
	.cfi_offset 14, -24
	.cfi_offset 13, -32
	.cfi_offset 12, -40
	.cfi_offset 3, -48
	movq	%rdi, -40(%rbp)
	movq	%rsi, -48(%rbp)
	movq	%rdx, -56(%rbp)
	movq	%rcx, -64(%rbp)
	movq	%r8, -72(%rbp)
	movq	-48(%rbp), %rax
	movq	%rax, %rsi
	movl	$40, %edi
	call	_ZnwmPv
	movq	-72(%rbp), %rax
	movq	%rax, %rdi
	call	_ZSt7forwardISt5tupleIJEEEOT_RNSt16remove_referenceIS2_E4typeE
	movq	%rax, %r14
	movq	-64(%rbp), %rax
	movq	%rax, %rdi
	call	_ZSt7forwardISt5tupleIJOcEEEOT_RNSt16remove_referenceIS3_E4typeE
	movq	%rax, %r13
	movq	-56(%rbp), %rax
	movq	%rax, %rdi
	call	_ZSt7forwardIRKSt21piecewise_construct_tEOT_RNSt16remove_referenceIS3_E4typeE
	movq	%rax, %r12
	movq	-48(%rbp), %rax
	movq	%rax, %rdi
	call	_ZNSt13_Rb_tree_nodeISt4pairIKciEE9_M_valptrEv
	movq	%rax, %rbx
	movq	-40(%rbp), %rax
	movq	%rax, %rdi
	call	_ZNSt8_Rb_treeIcSt4pairIKciESt10_Select1stIS2_ESt4lessIcESaIS2_EE21_M_get_Node_allocatorEv
	movq	%r14, %r8
	movq	%r13, %rcx
	movq	%r12, %rdx
	movq	%rbx, %rsi
	movq	%rax, %rdi
.LEHB11:
	call	_ZNSt16allocator_traitsISaISt13_Rb_tree_nodeISt4pairIKciEEEE9constructIS3_JRKSt21piecewise_construct_tSt5tupleIJOcEESB_IJEEEEEvRS5_PT_DpOT0_
.LEHE11:
	jmp	.L357
.L355:
	movq	%rax, %rdi
	call	__cxa_begin_catch@PLT
	movq	-48(%rbp), %rdx
	movq	-40(%rbp), %rax
	movq	%rdx, %rsi
	movq	%rax, %rdi
	call	_ZNSt8_Rb_treeIcSt4pairIKciESt10_Select1stIS2_ESt4lessIcESaIS2_EE11_M_put_nodeEPSt13_Rb_tree_nodeIS2_E
.LEHB12:
	call	__cxa_rethrow@PLT
.LEHE12:
.L356:
	movq	%rax, %rbx
	call	__cxa_end_catch@PLT
	movq	%rbx, %rax
	movq	%rax, %rdi
.LEHB13:
	call	_Unwind_Resume@PLT
.LEHE13:
.L357:
	addq	$48, %rsp
	popq	%rbx
	popq	%r12
	popq	%r13
	popq	%r14
	popq	%rbp
	.cfi_def_cfa 7, 8
	ret
	.cfi_endproc
.LFE2822:
	.section	.gcc_except_table
	.align 4
.LLSDA2822:
	.byte	0xff
	.byte	0x9b
	.uleb128 .LLSDATT2822-.LLSDATTD2822
.LLSDATTD2822:
	.byte	0x1
	.uleb128 .LLSDACSE2822-.LLSDACSB2822
.LLSDACSB2822:
	.uleb128 .LEHB11-.LFB2822
	.uleb128 .LEHE11-.LEHB11
	.uleb128 .L355-.LFB2822
	.uleb128 0x1
	.uleb128 .LEHB12-.LFB2822
	.uleb128 .LEHE12-.LEHB12
	.uleb128 .L356-.LFB2822
	.uleb128 0
	.uleb128 .LEHB13-.LFB2822
	.uleb128 .LEHE13-.LEHB13
	.uleb128 0
	.uleb128 0
.LLSDACSE2822:
	.byte	0x1
	.byte	0
	.align 4
	.long	0

.LLSDATT2822:
	.section	.text._ZNSt8_Rb_treeIcSt4pairIKciESt10_Select1stIS2_ESt4lessIcESaIS2_EE17_M_construct_nodeIJRKSt21piecewise_construct_tSt5tupleIJOcEESD_IJEEEEEvPSt13_Rb_tree_nodeIS2_EDpOT_,"axG",@progbits,_ZNSt8_Rb_treeIcSt4pairIKciESt10_Select1stIS2_ESt4lessIcESaIS2_EE17_M_construct_nodeIJRKSt21piecewise_construct_tSt5tupleIJOcEESD_IJEEEEEvPSt13_Rb_tree_nodeIS2_EDpOT_,comdat
	.size	_ZNSt8_Rb_treeIcSt4pairIKciESt10_Select1stIS2_ESt4lessIcESaIS2_EE17_M_construct_nodeIJRKSt21piecewise_construct_tSt5tupleIJOcEESD_IJEEEEEvPSt13_Rb_tree_nodeIS2_EDpOT_, .-_ZNSt8_Rb_treeIcSt4pairIKciESt10_Select1stIS2_ESt4lessIcESaIS2_EE17_M_construct_nodeIJRKSt21piecewise_construct_tSt5tupleIJOcEESD_IJEEEEEvPSt13_Rb_tree_nodeIS2_EDpOT_
	.section	.text._ZNSt8_Rb_treeIcSt4pairIKciESt10_Select1stIS2_ESt4lessIcESaIS2_EE12_M_rightmostEv,"axG",@progbits,_ZNSt8_Rb_treeIcSt4pairIKciESt10_Select1stIS2_ESt4lessIcESaIS2_EE12_M_rightmostEv,comdat
	.align 2
	.weak	_ZNSt8_Rb_treeIcSt4pairIKciESt10_Select1stIS2_ESt4lessIcESaIS2_EE12_M_rightmostEv
	.type	_ZNSt8_Rb_treeIcSt4pairIKciESt10_Select1stIS2_ESt4lessIcESaIS2_EE12_M_rightmostEv, @function
_ZNSt8_Rb_treeIcSt4pairIKciESt10_Select1stIS2_ESt4lessIcESaIS2_EE12_M_rightmostEv:
.LFB2823:
	.cfi_startproc
	pushq	%rbp
	.cfi_def_cfa_offset 16
	.cfi_offset 6, -16
	movq	%rsp, %rbp
	.cfi_def_cfa_register 6
	movq	%rdi, -8(%rbp)
	movq	-8(%rbp), %rax
	addq	$32, %rax
	popq	%rbp
	.cfi_def_cfa 7, 8
	ret
	.cfi_endproc
.LFE2823:
	.size	_ZNSt8_Rb_treeIcSt4pairIKciESt10_Select1stIS2_ESt4lessIcESaIS2_EE12_M_rightmostEv, .-_ZNSt8_Rb_treeIcSt4pairIKciESt10_Select1stIS2_ESt4lessIcESaIS2_EE12_M_rightmostEv
	.section	.text._ZNSt4pairIPSt18_Rb_tree_node_baseS1_EC2IRPSt13_Rb_tree_nodeIS_IKciEERS1_Lb1EEEOT_OT0_,"axG",@progbits,_ZNSt4pairIPSt18_Rb_tree_node_baseS1_EC5IRPSt13_Rb_tree_nodeIS_IKciEERS1_Lb1EEEOT_OT0_,comdat
	.align 2
	.weak	_ZNSt4pairIPSt18_Rb_tree_node_baseS1_EC2IRPSt13_Rb_tree_nodeIS_IKciEERS1_Lb1EEEOT_OT0_
	.type	_ZNSt4pairIPSt18_Rb_tree_node_baseS1_EC2IRPSt13_Rb_tree_nodeIS_IKciEERS1_Lb1EEEOT_OT0_, @function
_ZNSt4pairIPSt18_Rb_tree_node_baseS1_EC2IRPSt13_Rb_tree_nodeIS_IKciEERS1_Lb1EEEOT_OT0_:
.LFB2830:
	.cfi_startproc
	pushq	%rbp
	.cfi_def_cfa_offset 16
	.cfi_offset 6, -16
	movq	%rsp, %rbp
	.cfi_def_cfa_register 6
	subq	$32, %rsp
	movq	%rdi, -8(%rbp)
	movq	%rsi, -16(%rbp)
	movq	%rdx, -24(%rbp)
	movq	-16(%rbp), %rax
	movq	%rax, %rdi
	call	_ZSt7forwardIRPSt13_Rb_tree_nodeISt4pairIKciEEEOT_RNSt16remove_referenceIS7_E4typeE
	movq	(%rax), %rdx
	movq	-8(%rbp), %rax
	movq	%rdx, (%rax)
	movq	-24(%rbp), %rax
	movq	%rax, %rdi
	call	_ZSt7forwardIRPSt18_Rb_tree_node_baseEOT_RNSt16remove_referenceIS3_E4typeE
	movq	(%rax), %rdx
	movq	-8(%rbp), %rax
	movq	%rdx, 8(%rax)
	nop
	leave
	.cfi_def_cfa 7, 8
	ret
	.cfi_endproc
.LFE2830:
	.size	_ZNSt4pairIPSt18_Rb_tree_node_baseS1_EC2IRPSt13_Rb_tree_nodeIS_IKciEERS1_Lb1EEEOT_OT0_, .-_ZNSt4pairIPSt18_Rb_tree_node_baseS1_EC2IRPSt13_Rb_tree_nodeIS_IKciEERS1_Lb1EEEOT_OT0_
	.weak	_ZNSt4pairIPSt18_Rb_tree_node_baseS1_EC1IRPSt13_Rb_tree_nodeIS_IKciEERS1_Lb1EEEOT_OT0_
	.set	_ZNSt4pairIPSt18_Rb_tree_node_baseS1_EC1IRPSt13_Rb_tree_nodeIS_IKciEERS1_Lb1EEEOT_OT0_,_ZNSt4pairIPSt18_Rb_tree_node_baseS1_EC2IRPSt13_Rb_tree_nodeIS_IKciEERS1_Lb1EEEOT_OT0_
	.section	.text._ZSt7forwardIRPSt13_Rb_tree_nodeISt4pairIKciEEEOT_RNSt16remove_referenceIS7_E4typeE,"axG",@progbits,_ZSt7forwardIRPSt13_Rb_tree_nodeISt4pairIKciEEEOT_RNSt16remove_referenceIS7_E4typeE,comdat
	.weak	_ZSt7forwardIRPSt13_Rb_tree_nodeISt4pairIKciEEEOT_RNSt16remove_referenceIS7_E4typeE
	.type	_ZSt7forwardIRPSt13_Rb_tree_nodeISt4pairIKciEEEOT_RNSt16remove_referenceIS7_E4typeE, @function
_ZSt7forwardIRPSt13_Rb_tree_nodeISt4pairIKciEEEOT_RNSt16remove_referenceIS7_E4typeE:
.LFB2832:
	.cfi_startproc
	pushq	%rbp
	.cfi_def_cfa_offset 16
	.cfi_offset 6, -16
	movq	%rsp, %rbp
	.cfi_def_cfa_register 6
	movq	%rdi, -8(%rbp)
	movq	-8(%rbp), %rax
	popq	%rbp
	.cfi_def_cfa 7, 8
	ret
	.cfi_endproc
.LFE2832:
	.size	_ZSt7forwardIRPSt13_Rb_tree_nodeISt4pairIKciEEEOT_RNSt16remove_referenceIS7_E4typeE, .-_ZSt7forwardIRPSt13_Rb_tree_nodeISt4pairIKciEEEOT_RNSt16remove_referenceIS7_E4typeE
	.section	.text._ZNSt8_Rb_treeIcSt4pairIKciESt10_Select1stIS2_ESt4lessIcESaIS2_EE24_M_get_insert_unique_posERS1_,"axG",@progbits,_ZNSt8_Rb_treeIcSt4pairIKciESt10_Select1stIS2_ESt4lessIcESaIS2_EE24_M_get_insert_unique_posERS1_,comdat
	.align 2
	.weak	_ZNSt8_Rb_treeIcSt4pairIKciESt10_Select1stIS2_ESt4lessIcESaIS2_EE24_M_get_insert_unique_posERS1_
	.type	_ZNSt8_Rb_treeIcSt4pairIKciESt10_Select1stIS2_ESt4lessIcESaIS2_EE24_M_get_insert_unique_posERS1_, @function
_ZNSt8_Rb_treeIcSt4pairIKciESt10_Select1stIS2_ESt4lessIcESaIS2_EE24_M_get_insert_unique_posERS1_:
.LFB2824:
	.cfi_startproc
	pushq	%rbp
	.cfi_def_cfa_offset 16
	.cfi_offset 6, -16
	movq	%rsp, %rbp
	.cfi_def_cfa_register 6
	pushq	%rbx
	subq	$104, %rsp
	.cfi_offset 3, -24
	movq	%rdi, -104(%rbp)
	movq	%rsi, -112(%rbp)
	movq	%fs:40, %rax
	movq	%rax, -24(%rbp)
	xorl	%eax, %eax
	movq	-104(%rbp), %rax
	movq	%rax, %rdi
	call	_ZNSt8_Rb_treeIcSt4pairIKciESt10_Select1stIS2_ESt4lessIcESaIS2_EE8_M_beginEv
	movq	%rax, -80(%rbp)
	movq	-104(%rbp), %rax
	movq	%rax, %rdi
	call	_ZNSt8_Rb_treeIcSt4pairIKciESt10_Select1stIS2_ESt4lessIcESaIS2_EE6_M_endEv
	movq	%rax, -72(%rbp)
	movb	$1, -81(%rbp)
.L367:
	movq	-80(%rbp), %rax
	testq	%rax, %rax
	je	.L364
	movq	-80(%rbp), %rax
	movq	%rax, -72(%rbp)
	movq	-104(%rbp), %rbx
	movq	-80(%rbp), %rax
	movq	%rax, %rdi
	call	_ZNSt8_Rb_treeIcSt4pairIKciESt10_Select1stIS2_ESt4lessIcESaIS2_EE6_S_keyEPKSt13_Rb_tree_nodeIS2_E
	movq	%rax, %rdx
	movq	-112(%rbp), %rax
	movq	%rax, %rsi
	movq	%rbx, %rdi
	call	_ZNKSt4lessIcEclERKcS2_
	movb	%al, -81(%rbp)
	cmpb	$0, -81(%rbp)
	je	.L365
	movq	-80(%rbp), %rax
	movq	%rax, %rdi
	call	_ZNSt8_Rb_treeIcSt4pairIKciESt10_Select1stIS2_ESt4lessIcESaIS2_EE7_S_leftEPSt18_Rb_tree_node_base
	jmp	.L366
.L365:
	movq	-80(%rbp), %rax
	movq	%rax, %rdi
	call	_ZNSt8_Rb_treeIcSt4pairIKciESt10_Select1stIS2_ESt4lessIcESaIS2_EE8_S_rightEPSt18_Rb_tree_node_base
.L366:
	movq	%rax, -80(%rbp)
	jmp	.L367
.L364:
	movq	-72(%rbp), %rdx
	leaq	-64(%rbp), %rax
	movq	%rdx, %rsi
	movq	%rax, %rdi
	call	_ZNSt17_Rb_tree_iteratorISt4pairIKciEEC1EPSt18_Rb_tree_node_base
	cmpb	$0, -81(%rbp)
	je	.L368
	movq	-104(%rbp), %rax
	movq	%rax, %rdi
	call	_ZNSt8_Rb_treeIcSt4pairIKciESt10_Select1stIS2_ESt4lessIcESaIS2_EE5beginEv
	movq	%rax, -48(%rbp)
	leaq	-48(%rbp), %rdx
	leaq	-64(%rbp), %rax
	movq	%rdx, %rsi
	movq	%rax, %rdi
	call	_ZNKSt17_Rb_tree_iteratorISt4pairIKciEEeqERKS3_
	testb	%al, %al
	je	.L369
	leaq	-72(%rbp), %rdx
	leaq	-80(%rbp), %rcx
	leaq	-48(%rbp), %rax
	movq	%rcx, %rsi
	movq	%rax, %rdi
	call	_ZNSt4pairIPSt18_Rb_tree_node_baseS1_EC1IRPSt13_Rb_tree_nodeIS_IKciEERS1_Lb1EEEOT_OT0_
	movq	-48(%rbp), %rax
	movq	-40(%rbp), %rdx
	jmp	.L372
.L369:
	leaq	-64(%rbp), %rax
	movq	%rax, %rdi
	call	_ZNSt17_Rb_tree_iteratorISt4pairIKciEEmmEv
.L368:
	movq	-104(%rbp), %rbx
	movq	-64(%rbp), %rax
	movq	%rax, %rdi
	call	_ZNSt8_Rb_treeIcSt4pairIKciESt10_Select1stIS2_ESt4lessIcESaIS2_EE6_S_keyEPKSt18_Rb_tree_node_base
	movq	%rax, %rcx
	movq	-112(%rbp), %rax
	movq	%rax, %rdx
	movq	%rcx, %rsi
	movq	%rbx, %rdi
	call	_ZNKSt4lessIcEclERKcS2_
	testb	%al, %al
	je	.L371
	leaq	-72(%rbp), %rdx
	leaq	-80(%rbp), %rcx
	leaq	-48(%rbp), %rax
	movq	%rcx, %rsi
	movq	%rax, %rdi
	call	_ZNSt4pairIPSt18_Rb_tree_node_baseS1_EC1IRPSt13_Rb_tree_nodeIS_IKciEERS1_Lb1EEEOT_OT0_
	movq	-48(%rbp), %rax
	movq	-40(%rbp), %rdx
	jmp	.L372
.L371:
	movq	$0, -56(%rbp)
	leaq	-56(%rbp), %rdx
	leaq	-64(%rbp), %rcx
	leaq	-48(%rbp), %rax
	movq	%rcx, %rsi
	movq	%rax, %rdi
	call	_ZNSt4pairIPSt18_Rb_tree_node_baseS1_EC1IRS1_Lb1EEEOT_RKS1_
	movq	-48(%rbp), %rax
	movq	-40(%rbp), %rdx
.L372:
	movq	-24(%rbp), %rbx
	xorq	%fs:40, %rbx
	je	.L373
	call	__stack_chk_fail@PLT
.L373:
	addq	$104, %rsp
	popq	%rbx
	popq	%rbp
	.cfi_def_cfa 7, 8
	ret
	.cfi_endproc
.LFE2824:
	.size	_ZNSt8_Rb_treeIcSt4pairIKciESt10_Select1stIS2_ESt4lessIcESaIS2_EE24_M_get_insert_unique_posERS1_, .-_ZNSt8_Rb_treeIcSt4pairIKciESt10_Select1stIS2_ESt4lessIcESaIS2_EE24_M_get_insert_unique_posERS1_
	.section	.text._ZNSt8_Rb_treeIcSt4pairIKciESt10_Select1stIS2_ESt4lessIcESaIS2_EE11_M_leftmostEv,"axG",@progbits,_ZNSt8_Rb_treeIcSt4pairIKciESt10_Select1stIS2_ESt4lessIcESaIS2_EE11_M_leftmostEv,comdat
	.align 2
	.weak	_ZNSt8_Rb_treeIcSt4pairIKciESt10_Select1stIS2_ESt4lessIcESaIS2_EE11_M_leftmostEv
	.type	_ZNSt8_Rb_treeIcSt4pairIKciESt10_Select1stIS2_ESt4lessIcESaIS2_EE11_M_leftmostEv, @function
_ZNSt8_Rb_treeIcSt4pairIKciESt10_Select1stIS2_ESt4lessIcESaIS2_EE11_M_leftmostEv:
.LFB2833:
	.cfi_startproc
	pushq	%rbp
	.cfi_def_cfa_offset 16
	.cfi_offset 6, -16
	movq	%rsp, %rbp
	.cfi_def_cfa_register 6
	movq	%rdi, -8(%rbp)
	movq	-8(%rbp), %rax
	addq	$24, %rax
	popq	%rbp
	.cfi_def_cfa 7, 8
	ret
	.cfi_endproc
.LFE2833:
	.size	_ZNSt8_Rb_treeIcSt4pairIKciESt10_Select1stIS2_ESt4lessIcESaIS2_EE11_M_leftmostEv, .-_ZNSt8_Rb_treeIcSt4pairIKciESt10_Select1stIS2_ESt4lessIcESaIS2_EE11_M_leftmostEv
	.section	.text._ZNSt17_Rb_tree_iteratorISt4pairIKciEEmmEv,"axG",@progbits,_ZNSt17_Rb_tree_iteratorISt4pairIKciEEmmEv,comdat
	.align 2
	.weak	_ZNSt17_Rb_tree_iteratorISt4pairIKciEEmmEv
	.type	_ZNSt17_Rb_tree_iteratorISt4pairIKciEEmmEv, @function
_ZNSt17_Rb_tree_iteratorISt4pairIKciEEmmEv:
.LFB2834:
	.cfi_startproc
	pushq	%rbp
	.cfi_def_cfa_offset 16
	.cfi_offset 6, -16
	movq	%rsp, %rbp
	.cfi_def_cfa_register 6
	subq	$16, %rsp
	movq	%rdi, -8(%rbp)
	movq	-8(%rbp), %rax
	movq	(%rax), %rax
	movq	%rax, %rdi
	call	_ZSt18_Rb_tree_decrementPSt18_Rb_tree_node_base@PLT
	movq	%rax, %rdx
	movq	-8(%rbp), %rax
	movq	%rdx, (%rax)
	movq	-8(%rbp), %rax
	leave
	.cfi_def_cfa 7, 8
	ret
	.cfi_endproc
.LFE2834:
	.size	_ZNSt17_Rb_tree_iteratorISt4pairIKciEEmmEv, .-_ZNSt17_Rb_tree_iteratorISt4pairIKciEEmmEv
	.section	.text._ZNSt8_Rb_treeIcSt4pairIKciESt10_Select1stIS2_ESt4lessIcESaIS2_EE8_S_valueEPKSt13_Rb_tree_nodeIS2_E,"axG",@progbits,_ZNSt8_Rb_treeIcSt4pairIKciESt10_Select1stIS2_ESt4lessIcESaIS2_EE8_S_valueEPKSt13_Rb_tree_nodeIS2_E,comdat
	.weak	_ZNSt8_Rb_treeIcSt4pairIKciESt10_Select1stIS2_ESt4lessIcESaIS2_EE8_S_valueEPKSt13_Rb_tree_nodeIS2_E
	.type	_ZNSt8_Rb_treeIcSt4pairIKciESt10_Select1stIS2_ESt4lessIcESaIS2_EE8_S_valueEPKSt13_Rb_tree_nodeIS2_E, @function
_ZNSt8_Rb_treeIcSt4pairIKciESt10_Select1stIS2_ESt4lessIcESaIS2_EE8_S_valueEPKSt13_Rb_tree_nodeIS2_E:
.LFB2835:
	.cfi_startproc
	pushq	%rbp
	.cfi_def_cfa_offset 16
	.cfi_offset 6, -16
	movq	%rsp, %rbp
	.cfi_def_cfa_register 6
	subq	$16, %rsp
	movq	%rdi, -8(%rbp)
	movq	-8(%rbp), %rax
	movq	%rax, %rdi
	call	_ZNKSt13_Rb_tree_nodeISt4pairIKciEE9_M_valptrEv
	leave
	.cfi_def_cfa 7, 8
	ret
	.cfi_endproc
.LFE2835:
	.size	_ZNSt8_Rb_treeIcSt4pairIKciESt10_Select1stIS2_ESt4lessIcESaIS2_EE8_S_valueEPKSt13_Rb_tree_nodeIS2_E, .-_ZNSt8_Rb_treeIcSt4pairIKciESt10_Select1stIS2_ESt4lessIcESaIS2_EE8_S_valueEPKSt13_Rb_tree_nodeIS2_E
	.section	.text._ZNKSt10_Select1stISt4pairIKciEEclERKS2_,"axG",@progbits,_ZNKSt10_Select1stISt4pairIKciEEclERKS2_,comdat
	.align 2
	.weak	_ZNKSt10_Select1stISt4pairIKciEEclERKS2_
	.type	_ZNKSt10_Select1stISt4pairIKciEEclERKS2_, @function
_ZNKSt10_Select1stISt4pairIKciEEclERKS2_:
.LFB2836:
	.cfi_startproc
	pushq	%rbp
	.cfi_def_cfa_offset 16
	.cfi_offset 6, -16
	movq	%rsp, %rbp
	.cfi_def_cfa_register 6
	movq	%rdi, -8(%rbp)
	movq	%rsi, -16(%rbp)
	movq	-16(%rbp), %rax
	popq	%rbp
	.cfi_def_cfa 7, 8
	ret
	.cfi_endproc
.LFE2836:
	.size	_ZNKSt10_Select1stISt4pairIKciEEclERKS2_, .-_ZNKSt10_Select1stISt4pairIKciEEclERKS2_
	.section	.text._ZNSt8_Rb_treeIcSt4pairIKciESt10_Select1stIS2_ESt4lessIcESaIS2_EE8_S_valueEPKSt18_Rb_tree_node_base,"axG",@progbits,_ZNSt8_Rb_treeIcSt4pairIKciESt10_Select1stIS2_ESt4lessIcESaIS2_EE8_S_valueEPKSt18_Rb_tree_node_base,comdat
	.weak	_ZNSt8_Rb_treeIcSt4pairIKciESt10_Select1stIS2_ESt4lessIcESaIS2_EE8_S_valueEPKSt18_Rb_tree_node_base
	.type	_ZNSt8_Rb_treeIcSt4pairIKciESt10_Select1stIS2_ESt4lessIcESaIS2_EE8_S_valueEPKSt18_Rb_tree_node_base, @function
_ZNSt8_Rb_treeIcSt4pairIKciESt10_Select1stIS2_ESt4lessIcESaIS2_EE8_S_valueEPKSt18_Rb_tree_node_base:
.LFB2837:
	.cfi_startproc
	pushq	%rbp
	.cfi_def_cfa_offset 16
	.cfi_offset 6, -16
	movq	%rsp, %rbp
	.cfi_def_cfa_register 6
	subq	$16, %rsp
	movq	%rdi, -8(%rbp)
	movq	-8(%rbp), %rax
	movq	%rax, %rdi
	call	_ZNKSt13_Rb_tree_nodeISt4pairIKciEE9_M_valptrEv
	leave
	.cfi_def_cfa 7, 8
	ret
	.cfi_endproc
.LFE2837:
	.size	_ZNSt8_Rb_treeIcSt4pairIKciESt10_Select1stIS2_ESt4lessIcESaIS2_EE8_S_valueEPKSt18_Rb_tree_node_base, .-_ZNSt8_Rb_treeIcSt4pairIKciESt10_Select1stIS2_ESt4lessIcESaIS2_EE8_S_valueEPKSt18_Rb_tree_node_base
	.section	.text._ZNSt8_Rb_treeIcSt4pairIKciESt10_Select1stIS2_ESt4lessIcESaIS2_EE14_M_upper_boundEPSt13_Rb_tree_nodeIS2_EPSt18_Rb_tree_node_baseRS1_,"axG",@progbits,_ZNSt8_Rb_treeIcSt4pairIKciESt10_Select1stIS2_ESt4lessIcESaIS2_EE14_M_upper_boundEPSt13_Rb_tree_nodeIS2_EPSt18_Rb_tree_node_baseRS1_,comdat
	.align 2
	.weak	_ZNSt8_Rb_treeIcSt4pairIKciESt10_Select1stIS2_ESt4lessIcESaIS2_EE14_M_upper_boundEPSt13_Rb_tree_nodeIS2_EPSt18_Rb_tree_node_baseRS1_
	.type	_ZNSt8_Rb_treeIcSt4pairIKciESt10_Select1stIS2_ESt4lessIcESaIS2_EE14_M_upper_boundEPSt13_Rb_tree_nodeIS2_EPSt18_Rb_tree_node_baseRS1_, @function
_ZNSt8_Rb_treeIcSt4pairIKciESt10_Select1stIS2_ESt4lessIcESaIS2_EE14_M_upper_boundEPSt13_Rb_tree_nodeIS2_EPSt18_Rb_tree_node_baseRS1_:
.LFB2838:
	.cfi_startproc
	pushq	%rbp
	.cfi_def_cfa_offset 16
	.cfi_offset 6, -16
	movq	%rsp, %rbp
	.cfi_def_cfa_register 6
	pushq	%rbx
	subq	$56, %rsp
	.cfi_offset 3, -24
	movq	%rdi, -40(%rbp)
	movq	%rsi, -48(%rbp)
	movq	%rdx, -56(%rbp)
	movq	%rcx, -64(%rbp)
	movq	%fs:40, %rax
	movq	%rax, -24(%rbp)
	xorl	%eax, %eax
.L388:
	cmpq	$0, -48(%rbp)
	je	.L385
	movq	-40(%rbp), %rbx
	movq	-48(%rbp), %rax
	movq	%rax, %rdi
	call	_ZNSt8_Rb_treeIcSt4pairIKciESt10_Select1stIS2_ESt4lessIcESaIS2_EE6_S_keyEPKSt13_Rb_tree_nodeIS2_E
	movq	%rax, %rdx
	movq	-64(%rbp), %rax
	movq	%rax, %rsi
	movq	%rbx, %rdi
	call	_ZNKSt4lessIcEclERKcS2_
	testb	%al, %al
	je	.L386
	movq	-48(%rbp), %rax
	movq	%rax, -56(%rbp)
	movq	-48(%rbp), %rax
	movq	%rax, %rdi
	call	_ZNSt8_Rb_treeIcSt4pairIKciESt10_Select1stIS2_ESt4lessIcESaIS2_EE7_S_leftEPSt18_Rb_tree_node_base
	movq	%rax, -48(%rbp)
	jmp	.L388
.L386:
	movq	-48(%rbp), %rax
	movq	%rax, %rdi
	call	_ZNSt8_Rb_treeIcSt4pairIKciESt10_Select1stIS2_ESt4lessIcESaIS2_EE8_S_rightEPSt18_Rb_tree_node_base
	movq	%rax, -48(%rbp)
	jmp	.L388
.L385:
	movq	-56(%rbp), %rdx
	leaq	-32(%rbp), %rax
	movq	%rdx, %rsi
	movq	%rax, %rdi
	call	_ZNSt17_Rb_tree_iteratorISt4pairIKciEEC1EPSt18_Rb_tree_node_base
	movq	-32(%rbp), %rax
	movq	-24(%rbp), %rcx
	xorq	%fs:40, %rcx
	je	.L390
	call	__stack_chk_fail@PLT
.L390:
	addq	$56, %rsp
	popq	%rbx
	popq	%rbp
	.cfi_def_cfa 7, 8
	ret
	.cfi_endproc
.LFE2838:
	.size	_ZNSt8_Rb_treeIcSt4pairIKciESt10_Select1stIS2_ESt4lessIcESaIS2_EE14_M_upper_boundEPSt13_Rb_tree_nodeIS2_EPSt18_Rb_tree_node_baseRS1_, .-_ZNSt8_Rb_treeIcSt4pairIKciESt10_Select1stIS2_ESt4lessIcESaIS2_EE14_M_upper_boundEPSt13_Rb_tree_nodeIS2_EPSt18_Rb_tree_node_baseRS1_
	.section	.text._ZSt7forwardISt17_Rb_tree_iteratorISt4pairIKciEEEOT_RNSt16remove_referenceIS5_E4typeE,"axG",@progbits,_ZSt7forwardISt17_Rb_tree_iteratorISt4pairIKciEEEOT_RNSt16remove_referenceIS5_E4typeE,comdat
	.weak	_ZSt7forwardISt17_Rb_tree_iteratorISt4pairIKciEEEOT_RNSt16remove_referenceIS5_E4typeE
	.type	_ZSt7forwardISt17_Rb_tree_iteratorISt4pairIKciEEEOT_RNSt16remove_referenceIS5_E4typeE, @function
_ZSt7forwardISt17_Rb_tree_iteratorISt4pairIKciEEEOT_RNSt16remove_referenceIS5_E4typeE:
.LFB2840:
	.cfi_startproc
	pushq	%rbp
	.cfi_def_cfa_offset 16
	.cfi_offset 6, -16
	movq	%rsp, %rbp
	.cfi_def_cfa_register 6
	movq	%rdi, -8(%rbp)
	movq	-8(%rbp), %rax
	popq	%rbp
	.cfi_def_cfa 7, 8
	ret
	.cfi_endproc
.LFE2840:
	.size	_ZSt7forwardISt17_Rb_tree_iteratorISt4pairIKciEEEOT_RNSt16remove_referenceIS5_E4typeE, .-_ZSt7forwardISt17_Rb_tree_iteratorISt4pairIKciEEEOT_RNSt16remove_referenceIS5_E4typeE
	.section	.text._ZNSt4pairISt17_Rb_tree_iteratorIS_IKciEES3_EC2IS3_S3_Lb1EEEOT_OT0_,"axG",@progbits,_ZNSt4pairISt17_Rb_tree_iteratorIS_IKciEES3_EC5IS3_S3_Lb1EEEOT_OT0_,comdat
	.align 2
	.weak	_ZNSt4pairISt17_Rb_tree_iteratorIS_IKciEES3_EC2IS3_S3_Lb1EEEOT_OT0_
	.type	_ZNSt4pairISt17_Rb_tree_iteratorIS_IKciEES3_EC2IS3_S3_Lb1EEEOT_OT0_, @function
_ZNSt4pairISt17_Rb_tree_iteratorIS_IKciEES3_EC2IS3_S3_Lb1EEEOT_OT0_:
.LFB2841:
	.cfi_startproc
	pushq	%rbp
	.cfi_def_cfa_offset 16
	.cfi_offset 6, -16
	movq	%rsp, %rbp
	.cfi_def_cfa_register 6
	subq	$32, %rsp
	movq	%rdi, -8(%rbp)
	movq	%rsi, -16(%rbp)
	movq	%rdx, -24(%rbp)
	movq	-16(%rbp), %rax
	movq	%rax, %rdi
	call	_ZSt7forwardISt17_Rb_tree_iteratorISt4pairIKciEEEOT_RNSt16remove_referenceIS5_E4typeE
	movq	%rax, %rdx
	movq	-8(%rbp), %rax
	movq	(%rdx), %rdx
	movq	%rdx, (%rax)
	movq	-24(%rbp), %rax
	movq	%rax, %rdi
	call	_ZSt7forwardISt17_Rb_tree_iteratorISt4pairIKciEEEOT_RNSt16remove_referenceIS5_E4typeE
	movq	%rax, %rdx
	movq	-8(%rbp), %rax
	movq	(%rdx), %rdx
	movq	%rdx, 8(%rax)
	nop
	leave
	.cfi_def_cfa 7, 8
	ret
	.cfi_endproc
.LFE2841:
	.size	_ZNSt4pairISt17_Rb_tree_iteratorIS_IKciEES3_EC2IS3_S3_Lb1EEEOT_OT0_, .-_ZNSt4pairISt17_Rb_tree_iteratorIS_IKciEES3_EC2IS3_S3_Lb1EEEOT_OT0_
	.weak	_ZNSt4pairISt17_Rb_tree_iteratorIS_IKciEES3_EC1IS3_S3_Lb1EEEOT_OT0_
	.set	_ZNSt4pairISt17_Rb_tree_iteratorIS_IKciEES3_EC1IS3_S3_Lb1EEEOT_OT0_,_ZNSt4pairISt17_Rb_tree_iteratorIS_IKciEES3_EC2IS3_S3_Lb1EEEOT_OT0_
	.section	.text._ZNKSt23_Rb_tree_const_iteratorISt4pairIKciEEeqERKS3_,"axG",@progbits,_ZNKSt23_Rb_tree_const_iteratorISt4pairIKciEEeqERKS3_,comdat
	.align 2
	.weak	_ZNKSt23_Rb_tree_const_iteratorISt4pairIKciEEeqERKS3_
	.type	_ZNKSt23_Rb_tree_const_iteratorISt4pairIKciEEeqERKS3_, @function
_ZNKSt23_Rb_tree_const_iteratorISt4pairIKciEEeqERKS3_:
.LFB2843:
	.cfi_startproc
	pushq	%rbp
	.cfi_def_cfa_offset 16
	.cfi_offset 6, -16
	movq	%rsp, %rbp
	.cfi_def_cfa_register 6
	movq	%rdi, -8(%rbp)
	movq	%rsi, -16(%rbp)
	movq	-8(%rbp), %rax
	movq	(%rax), %rdx
	movq	-16(%rbp), %rax
	movq	(%rax), %rax
	cmpq	%rax, %rdx
	sete	%al
	popq	%rbp
	.cfi_def_cfa 7, 8
	ret
	.cfi_endproc
.LFE2843:
	.size	_ZNKSt23_Rb_tree_const_iteratorISt4pairIKciEEeqERKS3_, .-_ZNKSt23_Rb_tree_const_iteratorISt4pairIKciEEeqERKS3_
	.section	.text._ZNSt8_Rb_treeIcSt4pairIKciESt10_Select1stIS2_ESt4lessIcESaIS2_EE5clearEv,"axG",@progbits,_ZNSt8_Rb_treeIcSt4pairIKciESt10_Select1stIS2_ESt4lessIcESaIS2_EE5clearEv,comdat
	.align 2
	.weak	_ZNSt8_Rb_treeIcSt4pairIKciESt10_Select1stIS2_ESt4lessIcESaIS2_EE5clearEv
	.type	_ZNSt8_Rb_treeIcSt4pairIKciESt10_Select1stIS2_ESt4lessIcESaIS2_EE5clearEv, @function
_ZNSt8_Rb_treeIcSt4pairIKciESt10_Select1stIS2_ESt4lessIcESaIS2_EE5clearEv:
.LFB2844:
	.cfi_startproc
	.cfi_personality 0x9b,DW.ref.__gxx_personality_v0
	.cfi_lsda 0x1b,.LLSDA2844
	pushq	%rbp
	.cfi_def_cfa_offset 16
	.cfi_offset 6, -16
	movq	%rsp, %rbp
	.cfi_def_cfa_register 6
	subq	$16, %rsp
	movq	%rdi, -8(%rbp)
	movq	-8(%rbp), %rax
	movq	%rax, %rdi
	call	_ZNSt8_Rb_treeIcSt4pairIKciESt10_Select1stIS2_ESt4lessIcESaIS2_EE8_M_beginEv
	movq	%rax, %rdx
	movq	-8(%rbp), %rax
	movq	%rdx, %rsi
	movq	%rax, %rdi
	call	_ZNSt8_Rb_treeIcSt4pairIKciESt10_Select1stIS2_ESt4lessIcESaIS2_EE8_M_eraseEPSt13_Rb_tree_nodeIS2_E
	movq	-8(%rbp), %rax
	addq	$8, %rax
	movq	%rax, %rdi
	call	_ZNSt15_Rb_tree_header8_M_resetEv
	nop
	leave
	.cfi_def_cfa 7, 8
	ret
	.cfi_endproc
.LFE2844:
	.section	.gcc_except_table
.LLSDA2844:
	.byte	0xff
	.byte	0xff
	.byte	0x1
	.uleb128 .LLSDACSE2844-.LLSDACSB2844
.LLSDACSB2844:
.LLSDACSE2844:
	.section	.text._ZNSt8_Rb_treeIcSt4pairIKciESt10_Select1stIS2_ESt4lessIcESaIS2_EE5clearEv,"axG",@progbits,_ZNSt8_Rb_treeIcSt4pairIKciESt10_Select1stIS2_ESt4lessIcESaIS2_EE5clearEv,comdat
	.size	_ZNSt8_Rb_treeIcSt4pairIKciESt10_Select1stIS2_ESt4lessIcESaIS2_EE5clearEv, .-_ZNSt8_Rb_treeIcSt4pairIKciESt10_Select1stIS2_ESt4lessIcESaIS2_EE5clearEv
	.section	.text._ZNKSt23_Rb_tree_const_iteratorISt4pairIKciEEneERKS3_,"axG",@progbits,_ZNKSt23_Rb_tree_const_iteratorISt4pairIKciEEneERKS3_,comdat
	.align 2
	.weak	_ZNKSt23_Rb_tree_const_iteratorISt4pairIKciEEneERKS3_
	.type	_ZNKSt23_Rb_tree_const_iteratorISt4pairIKciEEneERKS3_, @function
_ZNKSt23_Rb_tree_const_iteratorISt4pairIKciEEneERKS3_:
.LFB2845:
	.cfi_startproc
	pushq	%rbp
	.cfi_def_cfa_offset 16
	.cfi_offset 6, -16
	movq	%rsp, %rbp
	.cfi_def_cfa_register 6
	movq	%rdi, -8(%rbp)
	movq	%rsi, -16(%rbp)
	movq	-8(%rbp), %rax
	movq	(%rax), %rdx
	movq	-16(%rbp), %rax
	movq	(%rax), %rax
	cmpq	%rax, %rdx
	setne	%al
	popq	%rbp
	.cfi_def_cfa 7, 8
	ret
	.cfi_endproc
.LFE2845:
	.size	_ZNKSt23_Rb_tree_const_iteratorISt4pairIKciEEneERKS3_, .-_ZNKSt23_Rb_tree_const_iteratorISt4pairIKciEEneERKS3_
	.section	.text._ZNSt23_Rb_tree_const_iteratorISt4pairIKciEEppEi,"axG",@progbits,_ZNSt23_Rb_tree_const_iteratorISt4pairIKciEEppEi,comdat
	.align 2
	.weak	_ZNSt23_Rb_tree_const_iteratorISt4pairIKciEEppEi
	.type	_ZNSt23_Rb_tree_const_iteratorISt4pairIKciEEppEi, @function
_ZNSt23_Rb_tree_const_iteratorISt4pairIKciEEppEi:
.LFB2846:
	.cfi_startproc
	pushq	%rbp
	.cfi_def_cfa_offset 16
	.cfi_offset 6, -16
	movq	%rsp, %rbp
	.cfi_def_cfa_register 6
	subq	$32, %rsp
	movq	%rdi, -24(%rbp)
	movl	%esi, -28(%rbp)
	movq	%fs:40, %rax
	movq	%rax, -8(%rbp)
	xorl	%eax, %eax
	movq	-24(%rbp), %rax
	movq	(%rax), %rax
	movq	%rax, -16(%rbp)
	movq	-24(%rbp), %rax
	movq	(%rax), %rax
	movq	%rax, %rdi
	call	_ZSt18_Rb_tree_incrementPKSt18_Rb_tree_node_base@PLT
	movq	%rax, %rdx
	movq	-24(%rbp), %rax
	movq	%rdx, (%rax)
	movq	-16(%rbp), %rax
	movq	-8(%rbp), %rcx
	xorq	%fs:40, %rcx
	je	.L401
	call	__stack_chk_fail@PLT
.L401:
	leave
	.cfi_def_cfa 7, 8
	ret
	.cfi_endproc
.LFE2846:
	.size	_ZNSt23_Rb_tree_const_iteratorISt4pairIKciEEppEi, .-_ZNSt23_Rb_tree_const_iteratorISt4pairIKciEEppEi
	.section	.text._ZN9__gnu_cxx16__aligned_membufISt4pairIKciEE7_M_addrEv,"axG",@progbits,_ZN9__gnu_cxx16__aligned_membufISt4pairIKciEE7_M_addrEv,comdat
	.align 2
	.weak	_ZN9__gnu_cxx16__aligned_membufISt4pairIKciEE7_M_addrEv
	.type	_ZN9__gnu_cxx16__aligned_membufISt4pairIKciEE7_M_addrEv, @function
_ZN9__gnu_cxx16__aligned_membufISt4pairIKciEE7_M_addrEv:
.LFB2847:
	.cfi_startproc
	pushq	%rbp
	.cfi_def_cfa_offset 16
	.cfi_offset 6, -16
	movq	%rsp, %rbp
	.cfi_def_cfa_register 6
	movq	%rdi, -8(%rbp)
	movq	-8(%rbp), %rax
	popq	%rbp
	.cfi_def_cfa 7, 8
	ret
	.cfi_endproc
.LFE2847:
	.size	_ZN9__gnu_cxx16__aligned_membufISt4pairIKciEE7_M_addrEv, .-_ZN9__gnu_cxx16__aligned_membufISt4pairIKciEE7_M_addrEv
	.section	.text._ZNSt8_Rb_treeIiSt4pairIKicESt10_Select1stIS2_ESt4lessIiESaIS2_EE15_M_destroy_nodeEPSt13_Rb_tree_nodeIS2_E,"axG",@progbits,_ZNSt8_Rb_treeIiSt4pairIKicESt10_Select1stIS2_ESt4lessIiESaIS2_EE15_M_destroy_nodeEPSt13_Rb_tree_nodeIS2_E,comdat
	.align 2
	.weak	_ZNSt8_Rb_treeIiSt4pairIKicESt10_Select1stIS2_ESt4lessIiESaIS2_EE15_M_destroy_nodeEPSt13_Rb_tree_nodeIS2_E
	.type	_ZNSt8_Rb_treeIiSt4pairIKicESt10_Select1stIS2_ESt4lessIiESaIS2_EE15_M_destroy_nodeEPSt13_Rb_tree_nodeIS2_E, @function
_ZNSt8_Rb_treeIiSt4pairIKicESt10_Select1stIS2_ESt4lessIiESaIS2_EE15_M_destroy_nodeEPSt13_Rb_tree_nodeIS2_E:
.LFB2848:
	.cfi_startproc
	.cfi_personality 0x9b,DW.ref.__gxx_personality_v0
	.cfi_lsda 0x1b,.LLSDA2848
	pushq	%rbp
	.cfi_def_cfa_offset 16
	.cfi_offset 6, -16
	movq	%rsp, %rbp
	.cfi_def_cfa_register 6
	pushq	%rbx
	subq	$24, %rsp
	.cfi_offset 3, -24
	movq	%rdi, -24(%rbp)
	movq	%rsi, -32(%rbp)
	movq	-32(%rbp), %rax
	movq	%rax, %rdi
	call	_ZNSt13_Rb_tree_nodeISt4pairIKicEE9_M_valptrEv
	movq	%rax, %rbx
	movq	-24(%rbp), %rax
	movq	%rax, %rdi
	call	_ZNSt8_Rb_treeIiSt4pairIKicESt10_Select1stIS2_ESt4lessIiESaIS2_EE21_M_get_Node_allocatorEv
	movq	%rbx, %rsi
	movq	%rax, %rdi
	call	_ZNSt16allocator_traitsISaISt13_Rb_tree_nodeISt4pairIKicEEEE7destroyIS3_EEvRS5_PT_
	nop
	addq	$24, %rsp
	popq	%rbx
	popq	%rbp
	.cfi_def_cfa 7, 8
	ret
	.cfi_endproc
.LFE2848:
	.section	.gcc_except_table
.LLSDA2848:
	.byte	0xff
	.byte	0xff
	.byte	0x1
	.uleb128 .LLSDACSE2848-.LLSDACSB2848
.LLSDACSB2848:
.LLSDACSE2848:
	.section	.text._ZNSt8_Rb_treeIiSt4pairIKicESt10_Select1stIS2_ESt4lessIiESaIS2_EE15_M_destroy_nodeEPSt13_Rb_tree_nodeIS2_E,"axG",@progbits,_ZNSt8_Rb_treeIiSt4pairIKicESt10_Select1stIS2_ESt4lessIiESaIS2_EE15_M_destroy_nodeEPSt13_Rb_tree_nodeIS2_E,comdat
	.size	_ZNSt8_Rb_treeIiSt4pairIKicESt10_Select1stIS2_ESt4lessIiESaIS2_EE15_M_destroy_nodeEPSt13_Rb_tree_nodeIS2_E, .-_ZNSt8_Rb_treeIiSt4pairIKicESt10_Select1stIS2_ESt4lessIiESaIS2_EE15_M_destroy_nodeEPSt13_Rb_tree_nodeIS2_E
	.section	.text._ZNSt8_Rb_treeIiSt4pairIKicESt10_Select1stIS2_ESt4lessIiESaIS2_EE11_M_put_nodeEPSt13_Rb_tree_nodeIS2_E,"axG",@progbits,_ZNSt8_Rb_treeIiSt4pairIKicESt10_Select1stIS2_ESt4lessIiESaIS2_EE11_M_put_nodeEPSt13_Rb_tree_nodeIS2_E,comdat
	.align 2
	.weak	_ZNSt8_Rb_treeIiSt4pairIKicESt10_Select1stIS2_ESt4lessIiESaIS2_EE11_M_put_nodeEPSt13_Rb_tree_nodeIS2_E
	.type	_ZNSt8_Rb_treeIiSt4pairIKicESt10_Select1stIS2_ESt4lessIiESaIS2_EE11_M_put_nodeEPSt13_Rb_tree_nodeIS2_E, @function
_ZNSt8_Rb_treeIiSt4pairIKicESt10_Select1stIS2_ESt4lessIiESaIS2_EE11_M_put_nodeEPSt13_Rb_tree_nodeIS2_E:
.LFB2849:
	.cfi_startproc
	.cfi_personality 0x9b,DW.ref.__gxx_personality_v0
	.cfi_lsda 0x1b,.LLSDA2849
	pushq	%rbp
	.cfi_def_cfa_offset 16
	.cfi_offset 6, -16
	movq	%rsp, %rbp
	.cfi_def_cfa_register 6
	subq	$16, %rsp
	movq	%rdi, -8(%rbp)
	movq	%rsi, -16(%rbp)
	movq	-8(%rbp), %rax
	movq	%rax, %rdi
	call	_ZNSt8_Rb_treeIiSt4pairIKicESt10_Select1stIS2_ESt4lessIiESaIS2_EE21_M_get_Node_allocatorEv
	movq	%rax, %rcx
	movq	-16(%rbp), %rax
	movl	$1, %edx
	movq	%rax, %rsi
	movq	%rcx, %rdi
	call	_ZNSt16allocator_traitsISaISt13_Rb_tree_nodeISt4pairIKicEEEE10deallocateERS5_PS4_m
	nop
	leave
	.cfi_def_cfa 7, 8
	ret
	.cfi_endproc
.LFE2849:
	.section	.gcc_except_table
.LLSDA2849:
	.byte	0xff
	.byte	0xff
	.byte	0x1
	.uleb128 .LLSDACSE2849-.LLSDACSB2849
.LLSDACSB2849:
.LLSDACSE2849:
	.section	.text._ZNSt8_Rb_treeIiSt4pairIKicESt10_Select1stIS2_ESt4lessIiESaIS2_EE11_M_put_nodeEPSt13_Rb_tree_nodeIS2_E,"axG",@progbits,_ZNSt8_Rb_treeIiSt4pairIKicESt10_Select1stIS2_ESt4lessIiESaIS2_EE11_M_put_nodeEPSt13_Rb_tree_nodeIS2_E,comdat
	.size	_ZNSt8_Rb_treeIiSt4pairIKicESt10_Select1stIS2_ESt4lessIiESaIS2_EE11_M_put_nodeEPSt13_Rb_tree_nodeIS2_E, .-_ZNSt8_Rb_treeIiSt4pairIKicESt10_Select1stIS2_ESt4lessIiESaIS2_EE11_M_put_nodeEPSt13_Rb_tree_nodeIS2_E
	.section	.text._ZNSt8_Rb_treeIiSt4pairIKicESt10_Select1stIS2_ESt4lessIiESaIS2_EE11_M_get_nodeEv,"axG",@progbits,_ZNSt8_Rb_treeIiSt4pairIKicESt10_Select1stIS2_ESt4lessIiESaIS2_EE11_M_get_nodeEv,comdat
	.align 2
	.weak	_ZNSt8_Rb_treeIiSt4pairIKicESt10_Select1stIS2_ESt4lessIiESaIS2_EE11_M_get_nodeEv
	.type	_ZNSt8_Rb_treeIiSt4pairIKicESt10_Select1stIS2_ESt4lessIiESaIS2_EE11_M_get_nodeEv, @function
_ZNSt8_Rb_treeIiSt4pairIKicESt10_Select1stIS2_ESt4lessIiESaIS2_EE11_M_get_nodeEv:
.LFB2850:
	.cfi_startproc
	pushq	%rbp
	.cfi_def_cfa_offset 16
	.cfi_offset 6, -16
	movq	%rsp, %rbp
	.cfi_def_cfa_register 6
	subq	$16, %rsp
	movq	%rdi, -8(%rbp)
	movq	-8(%rbp), %rax
	movq	%rax, %rdi
	call	_ZNSt8_Rb_treeIiSt4pairIKicESt10_Select1stIS2_ESt4lessIiESaIS2_EE21_M_get_Node_allocatorEv
	movl	$1, %esi
	movq	%rax, %rdi
	call	_ZNSt16allocator_traitsISaISt13_Rb_tree_nodeISt4pairIKicEEEE8allocateERS5_m
	leave
	.cfi_def_cfa 7, 8
	ret
	.cfi_endproc
.LFE2850:
	.size	_ZNSt8_Rb_treeIiSt4pairIKicESt10_Select1stIS2_ESt4lessIiESaIS2_EE11_M_get_nodeEv, .-_ZNSt8_Rb_treeIiSt4pairIKicESt10_Select1stIS2_ESt4lessIiESaIS2_EE11_M_get_nodeEv
	.section	.text._ZNSt8_Rb_treeIiSt4pairIKicESt10_Select1stIS2_ESt4lessIiESaIS2_EE17_M_construct_nodeIJS0_IicEEEEvPSt13_Rb_tree_nodeIS2_EDpOT_,"axG",@progbits,_ZNSt8_Rb_treeIiSt4pairIKicESt10_Select1stIS2_ESt4lessIiESaIS2_EE17_M_construct_nodeIJS0_IicEEEEvPSt13_Rb_tree_nodeIS2_EDpOT_,comdat
	.align 2
	.weak	_ZNSt8_Rb_treeIiSt4pairIKicESt10_Select1stIS2_ESt4lessIiESaIS2_EE17_M_construct_nodeIJS0_IicEEEEvPSt13_Rb_tree_nodeIS2_EDpOT_
	.type	_ZNSt8_Rb_treeIiSt4pairIKicESt10_Select1stIS2_ESt4lessIiESaIS2_EE17_M_construct_nodeIJS0_IicEEEEvPSt13_Rb_tree_nodeIS2_EDpOT_, @function
_ZNSt8_Rb_treeIiSt4pairIKicESt10_Select1stIS2_ESt4lessIiESaIS2_EE17_M_construct_nodeIJS0_IicEEEEvPSt13_Rb_tree_nodeIS2_EDpOT_:
.LFB2851:
	.cfi_startproc
	.cfi_personality 0x9b,DW.ref.__gxx_personality_v0
	.cfi_lsda 0x1b,.LLSDA2851
	pushq	%rbp
	.cfi_def_cfa_offset 16
	.cfi_offset 6, -16
	movq	%rsp, %rbp
	.cfi_def_cfa_register 6
	pushq	%r12
	pushq	%rbx
	subq	$32, %rsp
	.cfi_offset 12, -24
	.cfi_offset 3, -32
	movq	%rdi, -24(%rbp)
	movq	%rsi, -32(%rbp)
	movq	%rdx, -40(%rbp)
	movq	-32(%rbp), %rax
	movq	%rax, %rsi
	movl	$40, %edi
	call	_ZnwmPv
	movq	-40(%rbp), %rax
	movq	%rax, %rdi
	call	_ZSt7forwardISt4pairIicEEOT_RNSt16remove_referenceIS2_E4typeE
	movq	%rax, %r12
	movq	-32(%rbp), %rax
	movq	%rax, %rdi
	call	_ZNSt13_Rb_tree_nodeISt4pairIKicEE9_M_valptrEv
	movq	%rax, %rbx
	movq	-24(%rbp), %rax
	movq	%rax, %rdi
	call	_ZNSt8_Rb_treeIiSt4pairIKicESt10_Select1stIS2_ESt4lessIiESaIS2_EE21_M_get_Node_allocatorEv
	movq	%r12, %rdx
	movq	%rbx, %rsi
	movq	%rax, %rdi
.LEHB14:
	call	_ZNSt16allocator_traitsISaISt13_Rb_tree_nodeISt4pairIKicEEEE9constructIS3_JS1_IicEEEEvRS5_PT_DpOT0_
.LEHE14:
	jmp	.L413
.L411:
	movq	%rax, %rdi
	call	__cxa_begin_catch@PLT
	movq	-32(%rbp), %rdx
	movq	-24(%rbp), %rax
	movq	%rdx, %rsi
	movq	%rax, %rdi
	call	_ZNSt8_Rb_treeIiSt4pairIKicESt10_Select1stIS2_ESt4lessIiESaIS2_EE11_M_put_nodeEPSt13_Rb_tree_nodeIS2_E
.LEHB15:
	call	__cxa_rethrow@PLT
.LEHE15:
.L412:
	movq	%rax, %rbx
	call	__cxa_end_catch@PLT
	movq	%rbx, %rax
	movq	%rax, %rdi
.LEHB16:
	call	_Unwind_Resume@PLT
.LEHE16:
.L413:
	addq	$32, %rsp
	popq	%rbx
	popq	%r12
	popq	%rbp
	.cfi_def_cfa 7, 8
	ret
	.cfi_endproc
.LFE2851:
	.section	.gcc_except_table
	.align 4
.LLSDA2851:
	.byte	0xff
	.byte	0x9b
	.uleb128 .LLSDATT2851-.LLSDATTD2851
.LLSDATTD2851:
	.byte	0x1
	.uleb128 .LLSDACSE2851-.LLSDACSB2851
.LLSDACSB2851:
	.uleb128 .LEHB14-.LFB2851
	.uleb128 .LEHE14-.LEHB14
	.uleb128 .L411-.LFB2851
	.uleb128 0x1
	.uleb128 .LEHB15-.LFB2851
	.uleb128 .LEHE15-.LEHB15
	.uleb128 .L412-.LFB2851
	.uleb128 0
	.uleb128 .LEHB16-.LFB2851
	.uleb128 .LEHE16-.LEHB16
	.uleb128 0
	.uleb128 0
.LLSDACSE2851:
	.byte	0x1
	.byte	0
	.align 4
	.long	0

.LLSDATT2851:
	.section	.text._ZNSt8_Rb_treeIiSt4pairIKicESt10_Select1stIS2_ESt4lessIiESaIS2_EE17_M_construct_nodeIJS0_IicEEEEvPSt13_Rb_tree_nodeIS2_EDpOT_,"axG",@progbits,_ZNSt8_Rb_treeIiSt4pairIKicESt10_Select1stIS2_ESt4lessIiESaIS2_EE17_M_construct_nodeIJS0_IicEEEEvPSt13_Rb_tree_nodeIS2_EDpOT_,comdat
	.size	_ZNSt8_Rb_treeIiSt4pairIKicESt10_Select1stIS2_ESt4lessIiESaIS2_EE17_M_construct_nodeIJS0_IicEEEEvPSt13_Rb_tree_nodeIS2_EDpOT_, .-_ZNSt8_Rb_treeIiSt4pairIKicESt10_Select1stIS2_ESt4lessIiESaIS2_EE17_M_construct_nodeIJS0_IicEEEEvPSt13_Rb_tree_nodeIS2_EDpOT_
	.section	.text._ZNSt17_Rb_tree_iteratorISt4pairIKicEEmmEv,"axG",@progbits,_ZNSt17_Rb_tree_iteratorISt4pairIKicEEmmEv,comdat
	.align 2
	.weak	_ZNSt17_Rb_tree_iteratorISt4pairIKicEEmmEv
	.type	_ZNSt17_Rb_tree_iteratorISt4pairIKicEEmmEv, @function
_ZNSt17_Rb_tree_iteratorISt4pairIKicEEmmEv:
.LFB2852:
	.cfi_startproc
	pushq	%rbp
	.cfi_def_cfa_offset 16
	.cfi_offset 6, -16
	movq	%rsp, %rbp
	.cfi_def_cfa_register 6
	subq	$16, %rsp
	movq	%rdi, -8(%rbp)
	movq	-8(%rbp), %rax
	movq	(%rax), %rax
	movq	%rax, %rdi
	call	_ZSt18_Rb_tree_decrementPSt18_Rb_tree_node_base@PLT
	movq	%rax, %rdx
	movq	-8(%rbp), %rax
	movq	%rdx, (%rax)
	movq	-8(%rbp), %rax
	leave
	.cfi_def_cfa 7, 8
	ret
	.cfi_endproc
.LFE2852:
	.size	_ZNSt17_Rb_tree_iteratorISt4pairIKicEEmmEv, .-_ZNSt17_Rb_tree_iteratorISt4pairIKicEEmmEv
	.section	.text._ZNSt8_Rb_treeIiSt4pairIKicESt10_Select1stIS2_ESt4lessIiESaIS2_EE8_S_valueEPKSt13_Rb_tree_nodeIS2_E,"axG",@progbits,_ZNSt8_Rb_treeIiSt4pairIKicESt10_Select1stIS2_ESt4lessIiESaIS2_EE8_S_valueEPKSt13_Rb_tree_nodeIS2_E,comdat
	.weak	_ZNSt8_Rb_treeIiSt4pairIKicESt10_Select1stIS2_ESt4lessIiESaIS2_EE8_S_valueEPKSt13_Rb_tree_nodeIS2_E
	.type	_ZNSt8_Rb_treeIiSt4pairIKicESt10_Select1stIS2_ESt4lessIiESaIS2_EE8_S_valueEPKSt13_Rb_tree_nodeIS2_E, @function
_ZNSt8_Rb_treeIiSt4pairIKicESt10_Select1stIS2_ESt4lessIiESaIS2_EE8_S_valueEPKSt13_Rb_tree_nodeIS2_E:
.LFB2853:
	.cfi_startproc
	pushq	%rbp
	.cfi_def_cfa_offset 16
	.cfi_offset 6, -16
	movq	%rsp, %rbp
	.cfi_def_cfa_register 6
	subq	$16, %rsp
	movq	%rdi, -8(%rbp)
	movq	-8(%rbp), %rax
	movq	%rax, %rdi
	call	_ZNKSt13_Rb_tree_nodeISt4pairIKicEE9_M_valptrEv
	leave
	.cfi_def_cfa 7, 8
	ret
	.cfi_endproc
.LFE2853:
	.size	_ZNSt8_Rb_treeIiSt4pairIKicESt10_Select1stIS2_ESt4lessIiESaIS2_EE8_S_valueEPKSt13_Rb_tree_nodeIS2_E, .-_ZNSt8_Rb_treeIiSt4pairIKicESt10_Select1stIS2_ESt4lessIiESaIS2_EE8_S_valueEPKSt13_Rb_tree_nodeIS2_E
	.section	.text._ZNKSt10_Select1stISt4pairIKicEEclERKS2_,"axG",@progbits,_ZNKSt10_Select1stISt4pairIKicEEclERKS2_,comdat
	.align 2
	.weak	_ZNKSt10_Select1stISt4pairIKicEEclERKS2_
	.type	_ZNKSt10_Select1stISt4pairIKicEEclERKS2_, @function
_ZNKSt10_Select1stISt4pairIKicEEclERKS2_:
.LFB2854:
	.cfi_startproc
	pushq	%rbp
	.cfi_def_cfa_offset 16
	.cfi_offset 6, -16
	movq	%rsp, %rbp
	.cfi_def_cfa_register 6
	movq	%rdi, -8(%rbp)
	movq	%rsi, -16(%rbp)
	movq	-16(%rbp), %rax
	popq	%rbp
	.cfi_def_cfa 7, 8
	ret
	.cfi_endproc
.LFE2854:
	.size	_ZNKSt10_Select1stISt4pairIKicEEclERKS2_, .-_ZNKSt10_Select1stISt4pairIKicEEclERKS2_
	.section	.text._ZSt7forwardIbEOT_RNSt16remove_referenceIS0_E4typeE,"axG",@progbits,_ZSt7forwardIbEOT_RNSt16remove_referenceIS0_E4typeE,comdat
	.weak	_ZSt7forwardIbEOT_RNSt16remove_referenceIS0_E4typeE
	.type	_ZSt7forwardIbEOT_RNSt16remove_referenceIS0_E4typeE, @function
_ZSt7forwardIbEOT_RNSt16remove_referenceIS0_E4typeE:
.LFB2855:
	.cfi_startproc
	pushq	%rbp
	.cfi_def_cfa_offset 16
	.cfi_offset 6, -16
	movq	%rsp, %rbp
	.cfi_def_cfa_register 6
	movq	%rdi, -8(%rbp)
	movq	-8(%rbp), %rax
	popq	%rbp
	.cfi_def_cfa 7, 8
	ret
	.cfi_endproc
.LFE2855:
	.size	_ZSt7forwardIbEOT_RNSt16remove_referenceIS0_E4typeE, .-_ZSt7forwardIbEOT_RNSt16remove_referenceIS0_E4typeE
	.section	.text._ZN9__gnu_cxx16__aligned_membufISt4pairIKicEE7_M_addrEv,"axG",@progbits,_ZN9__gnu_cxx16__aligned_membufISt4pairIKicEE7_M_addrEv,comdat
	.align 2
	.weak	_ZN9__gnu_cxx16__aligned_membufISt4pairIKicEE7_M_addrEv
	.type	_ZN9__gnu_cxx16__aligned_membufISt4pairIKicEE7_M_addrEv, @function
_ZN9__gnu_cxx16__aligned_membufISt4pairIKicEE7_M_addrEv:
.LFB2856:
	.cfi_startproc
	pushq	%rbp
	.cfi_def_cfa_offset 16
	.cfi_offset 6, -16
	movq	%rsp, %rbp
	.cfi_def_cfa_register 6
	movq	%rdi, -8(%rbp)
	movq	-8(%rbp), %rax
	popq	%rbp
	.cfi_def_cfa 7, 8
	ret
	.cfi_endproc
.LFE2856:
	.size	_ZN9__gnu_cxx16__aligned_membufISt4pairIKicEE7_M_addrEv, .-_ZN9__gnu_cxx16__aligned_membufISt4pairIKicEE7_M_addrEv
	.section	.text._ZNSt8_Rb_treeIiSt4pairIKicESt10_Select1stIS2_ESt4lessIiESaIS2_EE8_S_valueEPKSt18_Rb_tree_node_base,"axG",@progbits,_ZNSt8_Rb_treeIiSt4pairIKicESt10_Select1stIS2_ESt4lessIiESaIS2_EE8_S_valueEPKSt18_Rb_tree_node_base,comdat
	.weak	_ZNSt8_Rb_treeIiSt4pairIKicESt10_Select1stIS2_ESt4lessIiESaIS2_EE8_S_valueEPKSt18_Rb_tree_node_base
	.type	_ZNSt8_Rb_treeIiSt4pairIKicESt10_Select1stIS2_ESt4lessIiESaIS2_EE8_S_valueEPKSt18_Rb_tree_node_base, @function
_ZNSt8_Rb_treeIiSt4pairIKicESt10_Select1stIS2_ESt4lessIiESaIS2_EE8_S_valueEPKSt18_Rb_tree_node_base:
.LFB2857:
	.cfi_startproc
	pushq	%rbp
	.cfi_def_cfa_offset 16
	.cfi_offset 6, -16
	movq	%rsp, %rbp
	.cfi_def_cfa_register 6
	subq	$16, %rsp
	movq	%rdi, -8(%rbp)
	movq	-8(%rbp), %rax
	movq	%rax, %rdi
	call	_ZNKSt13_Rb_tree_nodeISt4pairIKicEE9_M_valptrEv
	leave
	.cfi_def_cfa 7, 8
	ret
	.cfi_endproc
.LFE2857:
	.size	_ZNSt8_Rb_treeIiSt4pairIKicESt10_Select1stIS2_ESt4lessIiESaIS2_EE8_S_valueEPKSt18_Rb_tree_node_base, .-_ZNSt8_Rb_treeIiSt4pairIKicESt10_Select1stIS2_ESt4lessIiESaIS2_EE8_S_valueEPKSt18_Rb_tree_node_base
	.section	.text._ZNSt8_Rb_treeIiSt4pairIKicESt10_Select1stIS2_ESt4lessIiESaIS2_EE14_M_upper_boundEPSt13_Rb_tree_nodeIS2_EPSt18_Rb_tree_node_baseRS1_,"axG",@progbits,_ZNSt8_Rb_treeIiSt4pairIKicESt10_Select1stIS2_ESt4lessIiESaIS2_EE14_M_upper_boundEPSt13_Rb_tree_nodeIS2_EPSt18_Rb_tree_node_baseRS1_,comdat
	.align 2
	.weak	_ZNSt8_Rb_treeIiSt4pairIKicESt10_Select1stIS2_ESt4lessIiESaIS2_EE14_M_upper_boundEPSt13_Rb_tree_nodeIS2_EPSt18_Rb_tree_node_baseRS1_
	.type	_ZNSt8_Rb_treeIiSt4pairIKicESt10_Select1stIS2_ESt4lessIiESaIS2_EE14_M_upper_boundEPSt13_Rb_tree_nodeIS2_EPSt18_Rb_tree_node_baseRS1_, @function
_ZNSt8_Rb_treeIiSt4pairIKicESt10_Select1stIS2_ESt4lessIiESaIS2_EE14_M_upper_boundEPSt13_Rb_tree_nodeIS2_EPSt18_Rb_tree_node_baseRS1_:
.LFB2858:
	.cfi_startproc
	pushq	%rbp
	.cfi_def_cfa_offset 16
	.cfi_offset 6, -16
	movq	%rsp, %rbp
	.cfi_def_cfa_register 6
	pushq	%rbx
	subq	$56, %rsp
	.cfi_offset 3, -24
	movq	%rdi, -40(%rbp)
	movq	%rsi, -48(%rbp)
	movq	%rdx, -56(%rbp)
	movq	%rcx, -64(%rbp)
	movq	%fs:40, %rax
	movq	%rax, -24(%rbp)
	xorl	%eax, %eax
.L430:
	cmpq	$0, -48(%rbp)
	je	.L427
	movq	-40(%rbp), %rbx
	movq	-48(%rbp), %rax
	movq	%rax, %rdi
	call	_ZNSt8_Rb_treeIiSt4pairIKicESt10_Select1stIS2_ESt4lessIiESaIS2_EE6_S_keyEPKSt13_Rb_tree_nodeIS2_E
	movq	%rax, %rdx
	movq	-64(%rbp), %rax
	movq	%rax, %rsi
	movq	%rbx, %rdi
	call	_ZNKSt4lessIiEclERKiS2_
	testb	%al, %al
	je	.L428
	movq	-48(%rbp), %rax
	movq	%rax, -56(%rbp)
	movq	-48(%rbp), %rax
	movq	%rax, %rdi
	call	_ZNSt8_Rb_treeIiSt4pairIKicESt10_Select1stIS2_ESt4lessIiESaIS2_EE7_S_leftEPSt18_Rb_tree_node_base
	movq	%rax, -48(%rbp)
	jmp	.L430
.L428:
	movq	-48(%rbp), %rax
	movq	%rax, %rdi
	call	_ZNSt8_Rb_treeIiSt4pairIKicESt10_Select1stIS2_ESt4lessIiESaIS2_EE8_S_rightEPSt18_Rb_tree_node_base
	movq	%rax, -48(%rbp)
	jmp	.L430
.L427:
	movq	-56(%rbp), %rdx
	leaq	-32(%rbp), %rax
	movq	%rdx, %rsi
	movq	%rax, %rdi
	call	_ZNSt17_Rb_tree_iteratorISt4pairIKicEEC1EPSt18_Rb_tree_node_base
	movq	-32(%rbp), %rax
	movq	-24(%rbp), %rcx
	xorq	%fs:40, %rcx
	je	.L432
	call	__stack_chk_fail@PLT
.L432:
	addq	$56, %rsp
	popq	%rbx
	popq	%rbp
	.cfi_def_cfa 7, 8
	ret
	.cfi_endproc
.LFE2858:
	.size	_ZNSt8_Rb_treeIiSt4pairIKicESt10_Select1stIS2_ESt4lessIiESaIS2_EE14_M_upper_boundEPSt13_Rb_tree_nodeIS2_EPSt18_Rb_tree_node_baseRS1_, .-_ZNSt8_Rb_treeIiSt4pairIKicESt10_Select1stIS2_ESt4lessIiESaIS2_EE14_M_upper_boundEPSt13_Rb_tree_nodeIS2_EPSt18_Rb_tree_node_baseRS1_
	.section	.text._ZNSt4pairISt17_Rb_tree_iteratorIS_IKicEES3_EC2IS3_S3_Lb1EEEOT_OT0_,"axG",@progbits,_ZNSt4pairISt17_Rb_tree_iteratorIS_IKicEES3_EC5IS3_S3_Lb1EEEOT_OT0_,comdat
	.align 2
	.weak	_ZNSt4pairISt17_Rb_tree_iteratorIS_IKicEES3_EC2IS3_S3_Lb1EEEOT_OT0_
	.type	_ZNSt4pairISt17_Rb_tree_iteratorIS_IKicEES3_EC2IS3_S3_Lb1EEEOT_OT0_, @function
_ZNSt4pairISt17_Rb_tree_iteratorIS_IKicEES3_EC2IS3_S3_Lb1EEEOT_OT0_:
.LFB2860:
	.cfi_startproc
	pushq	%rbp
	.cfi_def_cfa_offset 16
	.cfi_offset 6, -16
	movq	%rsp, %rbp
	.cfi_def_cfa_register 6
	subq	$32, %rsp
	movq	%rdi, -8(%rbp)
	movq	%rsi, -16(%rbp)
	movq	%rdx, -24(%rbp)
	movq	-16(%rbp), %rax
	movq	%rax, %rdi
	call	_ZSt7forwardISt17_Rb_tree_iteratorISt4pairIKicEEEOT_RNSt16remove_referenceIS5_E4typeE
	movq	%rax, %rdx
	movq	-8(%rbp), %rax
	movq	(%rdx), %rdx
	movq	%rdx, (%rax)
	movq	-24(%rbp), %rax
	movq	%rax, %rdi
	call	_ZSt7forwardISt17_Rb_tree_iteratorISt4pairIKicEEEOT_RNSt16remove_referenceIS5_E4typeE
	movq	%rax, %rdx
	movq	-8(%rbp), %rax
	movq	(%rdx), %rdx
	movq	%rdx, 8(%rax)
	nop
	leave
	.cfi_def_cfa 7, 8
	ret
	.cfi_endproc
.LFE2860:
	.size	_ZNSt4pairISt17_Rb_tree_iteratorIS_IKicEES3_EC2IS3_S3_Lb1EEEOT_OT0_, .-_ZNSt4pairISt17_Rb_tree_iteratorIS_IKicEES3_EC2IS3_S3_Lb1EEEOT_OT0_
	.weak	_ZNSt4pairISt17_Rb_tree_iteratorIS_IKicEES3_EC1IS3_S3_Lb1EEEOT_OT0_
	.set	_ZNSt4pairISt17_Rb_tree_iteratorIS_IKicEES3_EC1IS3_S3_Lb1EEEOT_OT0_,_ZNSt4pairISt17_Rb_tree_iteratorIS_IKicEES3_EC2IS3_S3_Lb1EEEOT_OT0_
	.section	.text._ZNKSt23_Rb_tree_const_iteratorISt4pairIKicEEeqERKS3_,"axG",@progbits,_ZNKSt23_Rb_tree_const_iteratorISt4pairIKicEEeqERKS3_,comdat
	.align 2
	.weak	_ZNKSt23_Rb_tree_const_iteratorISt4pairIKicEEeqERKS3_
	.type	_ZNKSt23_Rb_tree_const_iteratorISt4pairIKicEEeqERKS3_, @function
_ZNKSt23_Rb_tree_const_iteratorISt4pairIKicEEeqERKS3_:
.LFB2862:
	.cfi_startproc
	pushq	%rbp
	.cfi_def_cfa_offset 16
	.cfi_offset 6, -16
	movq	%rsp, %rbp
	.cfi_def_cfa_register 6
	movq	%rdi, -8(%rbp)
	movq	%rsi, -16(%rbp)
	movq	-8(%rbp), %rax
	movq	(%rax), %rdx
	movq	-16(%rbp), %rax
	movq	(%rax), %rax
	cmpq	%rax, %rdx
	sete	%al
	popq	%rbp
	.cfi_def_cfa 7, 8
	ret
	.cfi_endproc
.LFE2862:
	.size	_ZNKSt23_Rb_tree_const_iteratorISt4pairIKicEEeqERKS3_, .-_ZNKSt23_Rb_tree_const_iteratorISt4pairIKicEEeqERKS3_
	.section	.text._ZNSt8_Rb_treeIiSt4pairIKicESt10_Select1stIS2_ESt4lessIiESaIS2_EE5clearEv,"axG",@progbits,_ZNSt8_Rb_treeIiSt4pairIKicESt10_Select1stIS2_ESt4lessIiESaIS2_EE5clearEv,comdat
	.align 2
	.weak	_ZNSt8_Rb_treeIiSt4pairIKicESt10_Select1stIS2_ESt4lessIiESaIS2_EE5clearEv
	.type	_ZNSt8_Rb_treeIiSt4pairIKicESt10_Select1stIS2_ESt4lessIiESaIS2_EE5clearEv, @function
_ZNSt8_Rb_treeIiSt4pairIKicESt10_Select1stIS2_ESt4lessIiESaIS2_EE5clearEv:
.LFB2863:
	.cfi_startproc
	.cfi_personality 0x9b,DW.ref.__gxx_personality_v0
	.cfi_lsda 0x1b,.LLSDA2863
	pushq	%rbp
	.cfi_def_cfa_offset 16
	.cfi_offset 6, -16
	movq	%rsp, %rbp
	.cfi_def_cfa_register 6
	subq	$16, %rsp
	movq	%rdi, -8(%rbp)
	movq	-8(%rbp), %rax
	movq	%rax, %rdi
	call	_ZNSt8_Rb_treeIiSt4pairIKicESt10_Select1stIS2_ESt4lessIiESaIS2_EE8_M_beginEv
	movq	%rax, %rdx
	movq	-8(%rbp), %rax
	movq	%rdx, %rsi
	movq	%rax, %rdi
	call	_ZNSt8_Rb_treeIiSt4pairIKicESt10_Select1stIS2_ESt4lessIiESaIS2_EE8_M_eraseEPSt13_Rb_tree_nodeIS2_E
	movq	-8(%rbp), %rax
	addq	$8, %rax
	movq	%rax, %rdi
	call	_ZNSt15_Rb_tree_header8_M_resetEv
	nop
	leave
	.cfi_def_cfa 7, 8
	ret
	.cfi_endproc
.LFE2863:
	.section	.gcc_except_table
.LLSDA2863:
	.byte	0xff
	.byte	0xff
	.byte	0x1
	.uleb128 .LLSDACSE2863-.LLSDACSB2863
.LLSDACSB2863:
.LLSDACSE2863:
	.section	.text._ZNSt8_Rb_treeIiSt4pairIKicESt10_Select1stIS2_ESt4lessIiESaIS2_EE5clearEv,"axG",@progbits,_ZNSt8_Rb_treeIiSt4pairIKicESt10_Select1stIS2_ESt4lessIiESaIS2_EE5clearEv,comdat
	.size	_ZNSt8_Rb_treeIiSt4pairIKicESt10_Select1stIS2_ESt4lessIiESaIS2_EE5clearEv, .-_ZNSt8_Rb_treeIiSt4pairIKicESt10_Select1stIS2_ESt4lessIiESaIS2_EE5clearEv
	.section	.text._ZNKSt23_Rb_tree_const_iteratorISt4pairIKicEEneERKS3_,"axG",@progbits,_ZNKSt23_Rb_tree_const_iteratorISt4pairIKicEEneERKS3_,comdat
	.align 2
	.weak	_ZNKSt23_Rb_tree_const_iteratorISt4pairIKicEEneERKS3_
	.type	_ZNKSt23_Rb_tree_const_iteratorISt4pairIKicEEneERKS3_, @function
_ZNKSt23_Rb_tree_const_iteratorISt4pairIKicEEneERKS3_:
.LFB2864:
	.cfi_startproc
	pushq	%rbp
	.cfi_def_cfa_offset 16
	.cfi_offset 6, -16
	movq	%rsp, %rbp
	.cfi_def_cfa_register 6
	movq	%rdi, -8(%rbp)
	movq	%rsi, -16(%rbp)
	movq	-8(%rbp), %rax
	movq	(%rax), %rdx
	movq	-16(%rbp), %rax
	movq	(%rax), %rax
	cmpq	%rax, %rdx
	setne	%al
	popq	%rbp
	.cfi_def_cfa 7, 8
	ret
	.cfi_endproc
.LFE2864:
	.size	_ZNKSt23_Rb_tree_const_iteratorISt4pairIKicEEneERKS3_, .-_ZNKSt23_Rb_tree_const_iteratorISt4pairIKicEEneERKS3_
	.section	.text._ZNSt23_Rb_tree_const_iteratorISt4pairIKicEEppEi,"axG",@progbits,_ZNSt23_Rb_tree_const_iteratorISt4pairIKicEEppEi,comdat
	.align 2
	.weak	_ZNSt23_Rb_tree_const_iteratorISt4pairIKicEEppEi
	.type	_ZNSt23_Rb_tree_const_iteratorISt4pairIKicEEppEi, @function
_ZNSt23_Rb_tree_const_iteratorISt4pairIKicEEppEi:
.LFB2865:
	.cfi_startproc
	pushq	%rbp
	.cfi_def_cfa_offset 16
	.cfi_offset 6, -16
	movq	%rsp, %rbp
	.cfi_def_cfa_register 6
	subq	$32, %rsp
	movq	%rdi, -24(%rbp)
	movl	%esi, -28(%rbp)
	movq	%fs:40, %rax
	movq	%rax, -8(%rbp)
	xorl	%eax, %eax
	movq	-24(%rbp), %rax
	movq	(%rax), %rax
	movq	%rax, -16(%rbp)
	movq	-24(%rbp), %rax
	movq	(%rax), %rax
	movq	%rax, %rdi
	call	_ZSt18_Rb_tree_incrementPKSt18_Rb_tree_node_base@PLT
	movq	%rax, %rdx
	movq	-24(%rbp), %rax
	movq	%rdx, (%rax)
	movq	-16(%rbp), %rax
	movq	-8(%rbp), %rcx
	xorq	%fs:40, %rcx
	je	.L441
	call	__stack_chk_fail@PLT
.L441:
	leave
	.cfi_def_cfa 7, 8
	ret
	.cfi_endproc
.LFE2865:
	.size	_ZNSt23_Rb_tree_const_iteratorISt4pairIKicEEppEi, .-_ZNSt23_Rb_tree_const_iteratorISt4pairIKicEEppEi
	.section	.text._ZNSt8_Rb_treeIiSt4pairIKicESt10_Select1stIS2_ESt4lessIiESaIS2_EE12_M_erase_auxESt23_Rb_tree_const_iteratorIS2_E,"axG",@progbits,_ZNSt8_Rb_treeIiSt4pairIKicESt10_Select1stIS2_ESt4lessIiESaIS2_EE12_M_erase_auxESt23_Rb_tree_const_iteratorIS2_E,comdat
	.align 2
	.weak	_ZNSt8_Rb_treeIiSt4pairIKicESt10_Select1stIS2_ESt4lessIiESaIS2_EE12_M_erase_auxESt23_Rb_tree_const_iteratorIS2_E
	.type	_ZNSt8_Rb_treeIiSt4pairIKicESt10_Select1stIS2_ESt4lessIiESaIS2_EE12_M_erase_auxESt23_Rb_tree_const_iteratorIS2_E, @function
_ZNSt8_Rb_treeIiSt4pairIKicESt10_Select1stIS2_ESt4lessIiESaIS2_EE12_M_erase_auxESt23_Rb_tree_const_iteratorIS2_E:
.LFB2866:
	.cfi_startproc
	pushq	%rbp
	.cfi_def_cfa_offset 16
	.cfi_offset 6, -16
	movq	%rsp, %rbp
	.cfi_def_cfa_register 6
	subq	$32, %rsp
	movq	%rdi, -24(%rbp)
	movq	%rsi, -32(%rbp)
	movq	-24(%rbp), %rax
	leaq	8(%rax), %rdx
	movq	-32(%rbp), %rax
	movq	%rdx, %rsi
	movq	%rax, %rdi
	call	_ZSt28_Rb_tree_rebalance_for_erasePSt18_Rb_tree_node_baseRS_@PLT
	movq	%rax, -8(%rbp)
	movq	-8(%rbp), %rdx
	movq	-24(%rbp), %rax
	movq	%rdx, %rsi
	movq	%rax, %rdi
	call	_ZNSt8_Rb_treeIiSt4pairIKicESt10_Select1stIS2_ESt4lessIiESaIS2_EE12_M_drop_nodeEPSt13_Rb_tree_nodeIS2_E
	movq	-24(%rbp), %rax
	movq	40(%rax), %rax
	leaq	-1(%rax), %rdx
	movq	-24(%rbp), %rax
	movq	%rdx, 40(%rax)
	nop
	leave
	.cfi_def_cfa 7, 8
	ret
	.cfi_endproc
.LFE2866:
	.size	_ZNSt8_Rb_treeIiSt4pairIKicESt10_Select1stIS2_ESt4lessIiESaIS2_EE12_M_erase_auxESt23_Rb_tree_const_iteratorIS2_E, .-_ZNSt8_Rb_treeIiSt4pairIKicESt10_Select1stIS2_ESt4lessIiESaIS2_EE12_M_erase_auxESt23_Rb_tree_const_iteratorIS2_E
	.section	.text._ZNSt8_Rb_treeIcSt4pairIKciESt10_Select1stIS2_ESt4lessIcESaIS2_EE21_M_get_Node_allocatorEv,"axG",@progbits,_ZNSt8_Rb_treeIcSt4pairIKciESt10_Select1stIS2_ESt4lessIcESaIS2_EE21_M_get_Node_allocatorEv,comdat
	.align 2
	.weak	_ZNSt8_Rb_treeIcSt4pairIKciESt10_Select1stIS2_ESt4lessIcESaIS2_EE21_M_get_Node_allocatorEv
	.type	_ZNSt8_Rb_treeIcSt4pairIKciESt10_Select1stIS2_ESt4lessIcESaIS2_EE21_M_get_Node_allocatorEv, @function
_ZNSt8_Rb_treeIcSt4pairIKciESt10_Select1stIS2_ESt4lessIcESaIS2_EE21_M_get_Node_allocatorEv:
.LFB2900:
	.cfi_startproc
	pushq	%rbp
	.cfi_def_cfa_offset 16
	.cfi_offset 6, -16
	movq	%rsp, %rbp
	.cfi_def_cfa_register 6
	movq	%rdi, -8(%rbp)
	movq	-8(%rbp), %rax
	popq	%rbp
	.cfi_def_cfa 7, 8
	ret
	.cfi_endproc
.LFE2900:
	.size	_ZNSt8_Rb_treeIcSt4pairIKciESt10_Select1stIS2_ESt4lessIcESaIS2_EE21_M_get_Node_allocatorEv, .-_ZNSt8_Rb_treeIcSt4pairIKciESt10_Select1stIS2_ESt4lessIcESaIS2_EE21_M_get_Node_allocatorEv
	.section	.text._ZNSt16allocator_traitsISaISt13_Rb_tree_nodeISt4pairIKciEEEE7destroyIS3_EEvRS5_PT_,"axG",@progbits,_ZNSt16allocator_traitsISaISt13_Rb_tree_nodeISt4pairIKciEEEE7destroyIS3_EEvRS5_PT_,comdat
	.weak	_ZNSt16allocator_traitsISaISt13_Rb_tree_nodeISt4pairIKciEEEE7destroyIS3_EEvRS5_PT_
	.type	_ZNSt16allocator_traitsISaISt13_Rb_tree_nodeISt4pairIKciEEEE7destroyIS3_EEvRS5_PT_, @function
_ZNSt16allocator_traitsISaISt13_Rb_tree_nodeISt4pairIKciEEEE7destroyIS3_EEvRS5_PT_:
.LFB2901:
	.cfi_startproc
	pushq	%rbp
	.cfi_def_cfa_offset 16
	.cfi_offset 6, -16
	movq	%rsp, %rbp
	.cfi_def_cfa_register 6
	subq	$16, %rsp
	movq	%rdi, -8(%rbp)
	movq	%rsi, -16(%rbp)
	movq	-16(%rbp), %rdx
	movq	-8(%rbp), %rax
	movq	%rdx, %rsi
	movq	%rax, %rdi
	call	_ZN9__gnu_cxx13new_allocatorISt13_Rb_tree_nodeISt4pairIKciEEE7destroyIS4_EEvPT_
	nop
	leave
	.cfi_def_cfa 7, 8
	ret
	.cfi_endproc
.LFE2901:
	.size	_ZNSt16allocator_traitsISaISt13_Rb_tree_nodeISt4pairIKciEEEE7destroyIS3_EEvRS5_PT_, .-_ZNSt16allocator_traitsISaISt13_Rb_tree_nodeISt4pairIKciEEEE7destroyIS3_EEvRS5_PT_
	.section	.text._ZNSt16allocator_traitsISaISt13_Rb_tree_nodeISt4pairIKciEEEE10deallocateERS5_PS4_m,"axG",@progbits,_ZNSt16allocator_traitsISaISt13_Rb_tree_nodeISt4pairIKciEEEE10deallocateERS5_PS4_m,comdat
	.weak	_ZNSt16allocator_traitsISaISt13_Rb_tree_nodeISt4pairIKciEEEE10deallocateERS5_PS4_m
	.type	_ZNSt16allocator_traitsISaISt13_Rb_tree_nodeISt4pairIKciEEEE10deallocateERS5_PS4_m, @function
_ZNSt16allocator_traitsISaISt13_Rb_tree_nodeISt4pairIKciEEEE10deallocateERS5_PS4_m:
.LFB2902:
	.cfi_startproc
	pushq	%rbp
	.cfi_def_cfa_offset 16
	.cfi_offset 6, -16
	movq	%rsp, %rbp
	.cfi_def_cfa_register 6
	subq	$32, %rsp
	movq	%rdi, -8(%rbp)
	movq	%rsi, -16(%rbp)
	movq	%rdx, -24(%rbp)
	movq	-24(%rbp), %rdx
	movq	-16(%rbp), %rcx
	movq	-8(%rbp), %rax
	movq	%rcx, %rsi
	movq	%rax, %rdi
	call	_ZN9__gnu_cxx13new_allocatorISt13_Rb_tree_nodeISt4pairIKciEEE10deallocateEPS5_m
	nop
	leave
	.cfi_def_cfa 7, 8
	ret
	.cfi_endproc
.LFE2902:
	.size	_ZNSt16allocator_traitsISaISt13_Rb_tree_nodeISt4pairIKciEEEE10deallocateERS5_PS4_m, .-_ZNSt16allocator_traitsISaISt13_Rb_tree_nodeISt4pairIKciEEEE10deallocateERS5_PS4_m
	.section	.text._ZNSt16allocator_traitsISaISt13_Rb_tree_nodeISt4pairIKciEEEE8allocateERS5_m,"axG",@progbits,_ZNSt16allocator_traitsISaISt13_Rb_tree_nodeISt4pairIKciEEEE8allocateERS5_m,comdat
	.weak	_ZNSt16allocator_traitsISaISt13_Rb_tree_nodeISt4pairIKciEEEE8allocateERS5_m
	.type	_ZNSt16allocator_traitsISaISt13_Rb_tree_nodeISt4pairIKciEEEE8allocateERS5_m, @function
_ZNSt16allocator_traitsISaISt13_Rb_tree_nodeISt4pairIKciEEEE8allocateERS5_m:
.LFB2903:
	.cfi_startproc
	pushq	%rbp
	.cfi_def_cfa_offset 16
	.cfi_offset 6, -16
	movq	%rsp, %rbp
	.cfi_def_cfa_register 6
	subq	$16, %rsp
	movq	%rdi, -8(%rbp)
	movq	%rsi, -16(%rbp)
	movq	-16(%rbp), %rcx
	movq	-8(%rbp), %rax
	movl	$0, %edx
	movq	%rcx, %rsi
	movq	%rax, %rdi
	call	_ZN9__gnu_cxx13new_allocatorISt13_Rb_tree_nodeISt4pairIKciEEE8allocateEmPKv
	leave
	.cfi_def_cfa 7, 8
	ret
	.cfi_endproc
.LFE2903:
	.size	_ZNSt16allocator_traitsISaISt13_Rb_tree_nodeISt4pairIKciEEEE8allocateERS5_m, .-_ZNSt16allocator_traitsISaISt13_Rb_tree_nodeISt4pairIKciEEEE8allocateERS5_m
	.section	.text._ZNSt16allocator_traitsISaISt13_Rb_tree_nodeISt4pairIKciEEEE9constructIS3_JRKSt21piecewise_construct_tSt5tupleIJOcEESB_IJEEEEEvRS5_PT_DpOT0_,"axG",@progbits,_ZNSt16allocator_traitsISaISt13_Rb_tree_nodeISt4pairIKciEEEE9constructIS3_JRKSt21piecewise_construct_tSt5tupleIJOcEESB_IJEEEEEvRS5_PT_DpOT0_,comdat
	.weak	_ZNSt16allocator_traitsISaISt13_Rb_tree_nodeISt4pairIKciEEEE9constructIS3_JRKSt21piecewise_construct_tSt5tupleIJOcEESB_IJEEEEEvRS5_PT_DpOT0_
	.type	_ZNSt16allocator_traitsISaISt13_Rb_tree_nodeISt4pairIKciEEEE9constructIS3_JRKSt21piecewise_construct_tSt5tupleIJOcEESB_IJEEEEEvRS5_PT_DpOT0_, @function
_ZNSt16allocator_traitsISaISt13_Rb_tree_nodeISt4pairIKciEEEE9constructIS3_JRKSt21piecewise_construct_tSt5tupleIJOcEESB_IJEEEEEvRS5_PT_DpOT0_:
.LFB2904:
	.cfi_startproc
	pushq	%rbp
	.cfi_def_cfa_offset 16
	.cfi_offset 6, -16
	movq	%rsp, %rbp
	.cfi_def_cfa_register 6
	pushq	%r12
	pushq	%rbx
	subq	$48, %rsp
	.cfi_offset 12, -24
	.cfi_offset 3, -32
	movq	%rdi, -24(%rbp)
	movq	%rsi, -32(%rbp)
	movq	%rdx, -40(%rbp)
	movq	%rcx, -48(%rbp)
	movq	%r8, -56(%rbp)
	movq	-56(%rbp), %rax
	movq	%rax, %rdi
	call	_ZSt7forwardISt5tupleIJEEEOT_RNSt16remove_referenceIS2_E4typeE
	movq	%rax, %r12
	movq	-48(%rbp), %rax
	movq	%rax, %rdi
	call	_ZSt7forwardISt5tupleIJOcEEEOT_RNSt16remove_referenceIS3_E4typeE
	movq	%rax, %rbx
	movq	-40(%rbp), %rax
	movq	%rax, %rdi
	call	_ZSt7forwardIRKSt21piecewise_construct_tEOT_RNSt16remove_referenceIS3_E4typeE
	movq	%rax, %rdx
	movq	-32(%rbp), %rsi
	movq	-24(%rbp), %rax
	movq	%r12, %r8
	movq	%rbx, %rcx
	movq	%rax, %rdi
	call	_ZN9__gnu_cxx13new_allocatorISt13_Rb_tree_nodeISt4pairIKciEEE9constructIS4_JRKSt21piecewise_construct_tSt5tupleIJOcEESB_IJEEEEEvPT_DpOT0_
	nop
	addq	$48, %rsp
	popq	%rbx
	popq	%r12
	popq	%rbp
	.cfi_def_cfa 7, 8
	ret
	.cfi_endproc
.LFE2904:
	.size	_ZNSt16allocator_traitsISaISt13_Rb_tree_nodeISt4pairIKciEEEE9constructIS3_JRKSt21piecewise_construct_tSt5tupleIJOcEESB_IJEEEEEvRS5_PT_DpOT0_, .-_ZNSt16allocator_traitsISaISt13_Rb_tree_nodeISt4pairIKciEEEE9constructIS3_JRKSt21piecewise_construct_tSt5tupleIJOcEESB_IJEEEEEvRS5_PT_DpOT0_
	.section	.text._ZNKSt13_Rb_tree_nodeISt4pairIKciEE9_M_valptrEv,"axG",@progbits,_ZNKSt13_Rb_tree_nodeISt4pairIKciEE9_M_valptrEv,comdat
	.align 2
	.weak	_ZNKSt13_Rb_tree_nodeISt4pairIKciEE9_M_valptrEv
	.type	_ZNKSt13_Rb_tree_nodeISt4pairIKciEE9_M_valptrEv, @function
_ZNKSt13_Rb_tree_nodeISt4pairIKciEE9_M_valptrEv:
.LFB2905:
	.cfi_startproc
	pushq	%rbp
	.cfi_def_cfa_offset 16
	.cfi_offset 6, -16
	movq	%rsp, %rbp
	.cfi_def_cfa_register 6
	subq	$16, %rsp
	movq	%rdi, -8(%rbp)
	movq	-8(%rbp), %rax
	addq	$32, %rax
	movq	%rax, %rdi
	call	_ZNK9__gnu_cxx16__aligned_membufISt4pairIKciEE6_M_ptrEv
	leave
	.cfi_def_cfa 7, 8
	ret
	.cfi_endproc
.LFE2905:
	.size	_ZNKSt13_Rb_tree_nodeISt4pairIKciEE9_M_valptrEv, .-_ZNKSt13_Rb_tree_nodeISt4pairIKciEE9_M_valptrEv
	.section	.text._ZNSt8_Rb_treeIiSt4pairIKicESt10_Select1stIS2_ESt4lessIiESaIS2_EE21_M_get_Node_allocatorEv,"axG",@progbits,_ZNSt8_Rb_treeIiSt4pairIKicESt10_Select1stIS2_ESt4lessIiESaIS2_EE21_M_get_Node_allocatorEv,comdat
	.align 2
	.weak	_ZNSt8_Rb_treeIiSt4pairIKicESt10_Select1stIS2_ESt4lessIiESaIS2_EE21_M_get_Node_allocatorEv
	.type	_ZNSt8_Rb_treeIiSt4pairIKicESt10_Select1stIS2_ESt4lessIiESaIS2_EE21_M_get_Node_allocatorEv, @function
_ZNSt8_Rb_treeIiSt4pairIKicESt10_Select1stIS2_ESt4lessIiESaIS2_EE21_M_get_Node_allocatorEv:
.LFB2906:
	.cfi_startproc
	pushq	%rbp
	.cfi_def_cfa_offset 16
	.cfi_offset 6, -16
	movq	%rsp, %rbp
	.cfi_def_cfa_register 6
	movq	%rdi, -8(%rbp)
	movq	-8(%rbp), %rax
	popq	%rbp
	.cfi_def_cfa 7, 8
	ret
	.cfi_endproc
.LFE2906:
	.size	_ZNSt8_Rb_treeIiSt4pairIKicESt10_Select1stIS2_ESt4lessIiESaIS2_EE21_M_get_Node_allocatorEv, .-_ZNSt8_Rb_treeIiSt4pairIKicESt10_Select1stIS2_ESt4lessIiESaIS2_EE21_M_get_Node_allocatorEv
	.section	.text._ZNSt16allocator_traitsISaISt13_Rb_tree_nodeISt4pairIKicEEEE7destroyIS3_EEvRS5_PT_,"axG",@progbits,_ZNSt16allocator_traitsISaISt13_Rb_tree_nodeISt4pairIKicEEEE7destroyIS3_EEvRS5_PT_,comdat
	.weak	_ZNSt16allocator_traitsISaISt13_Rb_tree_nodeISt4pairIKicEEEE7destroyIS3_EEvRS5_PT_
	.type	_ZNSt16allocator_traitsISaISt13_Rb_tree_nodeISt4pairIKicEEEE7destroyIS3_EEvRS5_PT_, @function
_ZNSt16allocator_traitsISaISt13_Rb_tree_nodeISt4pairIKicEEEE7destroyIS3_EEvRS5_PT_:
.LFB2907:
	.cfi_startproc
	pushq	%rbp
	.cfi_def_cfa_offset 16
	.cfi_offset 6, -16
	movq	%rsp, %rbp
	.cfi_def_cfa_register 6
	subq	$16, %rsp
	movq	%rdi, -8(%rbp)
	movq	%rsi, -16(%rbp)
	movq	-16(%rbp), %rdx
	movq	-8(%rbp), %rax
	movq	%rdx, %rsi
	movq	%rax, %rdi
	call	_ZN9__gnu_cxx13new_allocatorISt13_Rb_tree_nodeISt4pairIKicEEE7destroyIS4_EEvPT_
	nop
	leave
	.cfi_def_cfa 7, 8
	ret
	.cfi_endproc
.LFE2907:
	.size	_ZNSt16allocator_traitsISaISt13_Rb_tree_nodeISt4pairIKicEEEE7destroyIS3_EEvRS5_PT_, .-_ZNSt16allocator_traitsISaISt13_Rb_tree_nodeISt4pairIKicEEEE7destroyIS3_EEvRS5_PT_
