	.file	"replacement_new_del.cpp"
	.text
	.section	.rodata
	.type	_ZStL19piecewise_construct, @object
	.size	_ZStL19piecewise_construct, 1
_ZStL19piecewise_construct:
	.zero	1
	.local	_ZStL8__ioinit
	.comm	_ZStL8__ioinit,1,1
	.globl	tt
	.bss
	.align 4
	.type	tt, @object
	.size	tt, 4
tt:
	.zero	4
	.text
	.globl	_Z8mymallocm
	.type	_Z8mymallocm, @function
_Z8mymallocm:
.LFB1518:
	.cfi_startproc
	pushq	%rbp
	.cfi_def_cfa_offset 16
	.cfi_offset 6, -16
	movq	%rsp, %rbp
	.cfi_def_cfa_register 6
	subq	$16, %rsp
	movq	%rdi, -8(%rbp)
	movl	tt(%rip), %eax
	addl	$1, %eax
	movl	%eax, tt(%rip)
	movq	-8(%rbp), %rax
	movq	%rax, %rdi
	call	malloc@PLT
	leave
	.cfi_def_cfa 7, 8
	ret
	.cfi_endproc
.LFE1518:
	.size	_Z8mymallocm, .-_Z8mymallocm
	.globl	_Z6myfreePv
	.type	_Z6myfreePv, @function
_Z6myfreePv:
.LFB1519:
	.cfi_startproc
	pushq	%rbp
	.cfi_def_cfa_offset 16
	.cfi_offset 6, -16
	movq	%rsp, %rbp
	.cfi_def_cfa_register 6
	subq	$16, %rsp
	movq	%rdi, -8(%rbp)
	movl	tt(%rip), %eax
	subl	$1, %eax
	movl	%eax, tt(%rip)
	movq	-8(%rbp), %rax
	movq	%rax, %rdi
	call	free@PLT
	nop
	leave
	.cfi_def_cfa 7, 8
	ret
	.cfi_endproc
.LFE1519:
	.size	_Z6myfreePv, .-_Z6myfreePv
	.globl	main
	.type	main, @function
main:
.LFB1520:
	.cfi_startproc
	pushq	%rbp
	.cfi_def_cfa_offset 16
	.cfi_offset 6, -16
	movq	%rsp, %rbp
	.cfi_def_cfa_register 6
	subq	$32, %rsp
	movl	$4, %edi
	call	_Znwm@PLT
	movq	%rax, -32(%rbp)
	movl	$16, %edi
	call	_Znwm@PLT
	movq	%rax, -24(%rbp)
	movl	$4, %edi
	call	_Znwm@PLT
	movq	%rax, %rdx
	movq	-24(%rbp), %rax
	movq	%rdx, (%rax)
	movl	$19, %edi
	call	_Z8mymallocm
	movq	%rax, -16(%rbp)
	movl	$19, %edi
	call	_Z8mymallocm
	movq	%rax, -8(%rbp)
	movl	tt(%rip), %eax
	movl	%eax, %esi
	leaq	_ZSt4cout(%rip), %rdi
	call	_ZNSolsEi@PLT
	movl	$0, %eax
	leave
	.cfi_def_cfa 7, 8
	ret
	.cfi_endproc
.LFE1520:
	.size	main, .-main
	.type	_Z41__static_initialization_and_destruction_0ii, @function
_Z41__static_initialization_and_destruction_0ii:
.LFB2001:
	.cfi_startproc
	pushq	%rbp
	.cfi_def_cfa_offset 16
	.cfi_offset 6, -16
	movq	%rsp, %rbp
	.cfi_def_cfa_register 6
	subq	$16, %rsp
	movl	%edi, -4(%rbp)
	movl	%esi, -8(%rbp)
	cmpl	$1, -4(%rbp)
	jne	.L8
	cmpl	$65535, -8(%rbp)
	jne	.L8
	leaq	_ZStL8__ioinit(%rip), %rdi
	call	_ZNSt8ios_base4InitC1Ev@PLT
	leaq	__dso_handle(%rip), %rdx
	leaq	_ZStL8__ioinit(%rip), %rsi
	movq	_ZNSt8ios_base4InitD1Ev@GOTPCREL(%rip), %rax
	movq	%rax, %rdi
	call	__cxa_atexit@PLT
.L8:
	nop
	leave
	.cfi_def_cfa 7, 8
	ret
	.cfi_endproc
.LFE2001:
	.size	_Z41__static_initialization_and_destruction_0ii, .-_Z41__static_initialization_and_destruction_0ii
	.type	_GLOBAL__sub_I_tt, @function
_GLOBAL__sub_I_tt:
.LFB2002:
	.cfi_startproc
	pushq	%rbp
	.cfi_def_cfa_offset 16
	.cfi_offset 6, -16
	movq	%rsp, %rbp
	.cfi_def_cfa_register 6
	movl	$65535, %esi
	movl	$1, %edi
	call	_Z41__static_initialization_and_destruction_0ii
	popq	%rbp
	.cfi_def_cfa 7, 8
	ret
	.cfi_endproc
.LFE2002:
	.size	_GLOBAL__sub_I_tt, .-_GLOBAL__sub_I_tt
	.section	.init_array,"aw"
	.align 8
	.quad	_GLOBAL__sub_I_tt
	.hidden	__dso_handle
	.ident	"GCC: (Ubuntu 8.3.0-6ubuntu1~18.10.1) 8.3.0"
	.section	.note.GNU-stack,"",@progbits
