	.file	"reflection.cpp"
	.text
.Ltext0:
	.section	.text._ZNKSt9type_info4nameEv,"axG",@progbits,_ZNKSt9type_info4nameEv,comdat
	.align 2
	.weak	_ZNKSt9type_info4nameEv
	.type	_ZNKSt9type_info4nameEv, @function
_ZNKSt9type_info4nameEv:
.LFB3:
	.file 1 "/usr/include/c++/8/typeinfo"
	.loc 1 99 17
	.cfi_startproc
	pushq	%rbp
	.cfi_def_cfa_offset 16
	.cfi_offset 6, -16
	movq	%rsp, %rbp
	.cfi_def_cfa_register 6
	movq	%rdi, -8(%rbp)
	.loc 1 100 14
	movq	-8(%rbp), %rax
	movq	8(%rax), %rax
	.loc 1 100 22
	movzbl	(%rax), %eax
	.loc 1 100 31
	cmpb	$42, %al
	jne	.L2
	.loc 1 100 33 discriminator 1
	movq	-8(%rbp), %rax
	movq	8(%rax), %rax
	.loc 1 100 31 discriminator 1
	addq	$1, %rax
	.loc 1 100 46 discriminator 1
	jmp	.L4
.L2:
	.loc 1 100 31 discriminator 2
	movq	-8(%rbp), %rax
	movq	8(%rax), %rax
.L4:
	.loc 1 100 54 discriminator 5
	popq	%rbp
	.cfi_def_cfa 7, 8
	ret
	.cfi_endproc
.LFE3:
	.size	_ZNKSt9type_info4nameEv, .-_ZNKSt9type_info4nameEv
	.section	.rodata
	.type	_ZN5boost6fusion6detailL7enablerE, @object
	.size	_ZN5boost6fusion6detailL7enablerE, 1
_ZN5boost6fusion6detailL7enablerE:
	.zero	1
	.section	.text._ZN5boost6fusion11unused_typeC2Ev,"axG",@progbits,_ZN5boost6fusion11unused_typeC5Ev,comdat
	.align 2
	.weak	_ZN5boost6fusion11unused_typeC2Ev
	.type	_ZN5boost6fusion11unused_typeC2Ev, @function
_ZN5boost6fusion11unused_typeC2Ev:
.LFB1078:
	.file 2 "./include/boost/fusion/support/unused.hpp"
	.loc 2 26 9
	.cfi_startproc
	pushq	%rbp
	.cfi_def_cfa_offset 16
	.cfi_offset 6, -16
	movq	%rsp, %rbp
	.cfi_def_cfa_register 6
	movq	%rdi, -8(%rbp)
	.loc 2 26 25
	nop
	popq	%rbp
	.cfi_def_cfa 7, 8
	ret
	.cfi_endproc
.LFE1078:
	.size	_ZN5boost6fusion11unused_typeC2Ev, .-_ZN5boost6fusion11unused_typeC2Ev
	.weak	_ZN5boost6fusion11unused_typeC1Ev
	.set	_ZN5boost6fusion11unused_typeC1Ev,_ZN5boost6fusion11unused_typeC2Ev
	.local	_ZN5boost6fusionL6unusedE
	.comm	_ZN5boost6fusionL6unusedE,1,1
	.section	.rodata
	.align 8
	.type	_ZN5boost6detail15aligned_storageL22alignment_of_max_alignE, @object
	.size	_ZN5boost6detail15aligned_storageL22alignment_of_max_alignE, 8
_ZN5boost6detail15aligned_storageL22alignment_of_max_alignE:
	.quad	16
	.align 8
	.type	_ZN5boost9containerL19ADP_nodes_per_blockE, @object
	.size	_ZN5boost9containerL19ADP_nodes_per_blockE, 8
_ZN5boost9containerL19ADP_nodes_per_blockE:
	.quad	256
	.align 8
	.type	_ZN5boost9containerL19ADP_max_free_blocksE, @object
	.size	_ZN5boost9containerL19ADP_max_free_blocksE, 8
_ZN5boost9containerL19ADP_max_free_blocksE:
	.quad	2
	.align 8
	.type	_ZN5boost9containerL20ADP_overhead_percentE, @object
	.size	_ZN5boost9containerL20ADP_overhead_percentE, 8
_ZN5boost9containerL20ADP_overhead_percentE:
	.quad	1
	.align 8
	.type	_ZN5boost9containerL18ADP_only_alignmentE, @object
	.size	_ZN5boost9containerL18ADP_only_alignmentE, 8
_ZN5boost9containerL18ADP_only_alignmentE:
	.zero	8
	.align 8
	.type	_ZN5boost9containerL25NodeAlloc_nodes_per_blockE, @object
	.size	_ZN5boost9containerL25NodeAlloc_nodes_per_blockE, 8
_ZN5boost9containerL25NodeAlloc_nodes_per_blockE:
	.quad	256
	.type	_ZN5boost9containerL13ordered_rangeE, @object
	.size	_ZN5boost9containerL13ordered_rangeE, 1
_ZN5boost9containerL13ordered_rangeE:
	.zero	1
	.type	_ZN5boost9containerL20ordered_unique_rangeE, @object
	.size	_ZN5boost9containerL20ordered_unique_rangeE, 1
_ZN5boost9containerL20ordered_unique_rangeE:
	.zero	1
	.type	_ZN5boost9containerL12default_initE, @object
	.size	_ZN5boost9containerL12default_initE, 1
_ZN5boost9containerL12default_initE:
	.zero	1
	.type	_ZN5boost9containerL10value_initE, @object
	.size	_ZN5boost9containerL10value_initE, 1
_ZN5boost9containerL10value_initE:
	.zero	1
	.local	_ZStL8__ioinit
	.comm	_ZStL8__ioinit,1,1
	.globl	level_counter
	.bss
	.align 4
	.type	level_counter, @object
	.size	level_counter, 4
level_counter:
	.zero	4
	.section	.text._ZN11PrettySpace5printEv,"axG",@progbits,_ZN11PrettySpace5printEv,comdat
	.weak	_ZN11PrettySpace5printEv
	.type	_ZN11PrettySpace5printEv, @function
_ZN11PrettySpace5printEv:
.LFB3759:
	.file 3 "reflection.cpp"
	.loc 3 18 14
	.cfi_startproc
	pushq	%rbp
	.cfi_def_cfa_offset 16
	.cfi_offset 6, -16
	movq	%rsp, %rbp
	.cfi_def_cfa_register 6
	.loc 3 19 21
	movl	level_counter(%rip), %eax
	.loc 3 19 3
	testl	%eax, %eax
	jne	.L8
	.loc 3 19 43 discriminator 1
	movl	$_ZSt4endlIcSt11char_traitsIcEERSt13basic_ostreamIT_T0_ES6_, %esi
	movl	$_ZSt4cout, %edi
	call	_ZNSolsEPFRSoS_E
.L8:
	.loc 3 20 2
	nop
	popq	%rbp
	.cfi_def_cfa 7, 8
	ret
	.cfi_endproc
.LFE3759:
	.size	_ZN11PrettySpace5printEv, .-_ZN11PrettySpace5printEv
	.section	.text._ZN11PrettySpace4tickEb,"axG",@progbits,_ZN11PrettySpace4tickEb,comdat
	.weak	_ZN11PrettySpace4tickEb
	.type	_ZN11PrettySpace4tickEb, @function
_ZN11PrettySpace4tickEb:
.LFB3760:
	.loc 3 21 14
	.cfi_startproc
	pushq	%rbp
	.cfi_def_cfa_offset 16
	.cfi_offset 6, -16
	movq	%rsp, %rbp
	.cfi_def_cfa_register 6
	movl	%edi, %eax
	movb	%al, -4(%rbp)
	.loc 3 22 3
	cmpb	$0, -4(%rbp)
	je	.L10
	.loc 3 22 27 discriminator 1
	movl	level_counter(%rip), %eax
	addl	$4, %eax
	movl	%eax, level_counter(%rip)
	.loc 3 24 2 discriminator 1
	jmp	.L12
.L10:
	.loc 3 23 27
	movl	level_counter(%rip), %eax
	subl	$4, %eax
	movl	%eax, level_counter(%rip)
.L12:
	.loc 3 24 2
	nop
	popq	%rbp
	.cfi_def_cfa 7, 8
	ret
	.cfi_endproc
.LFE3760:
	.size	_ZN11PrettySpace4tickEb, .-_ZN11PrettySpace4tickEb
	.section	.rodata
.LC0:
	.string	"foo1"
	.section	.text._ZN5boost6fusion9extension18struct_member_nameI3FooLi0EE4callEv,"axG",@progbits,_ZN5boost6fusion9extension18struct_member_nameI3FooLi0EE4callEv,comdat
	.weak	_ZN5boost6fusion9extension18struct_member_nameI3FooLi0EE4callEv
	.type	_ZN5boost6fusion9extension18struct_member_nameI3FooLi0EE4callEv, @function
_ZN5boost6fusion9extension18struct_member_nameI3FooLi0EE4callEv:
.LFB3769:
	.loc 3 113 654
	.cfi_startproc
	pushq	%rbp
	.cfi_def_cfa_offset 16
	.cfi_offset 6, -16
	movq	%rsp, %rbp
	.cfi_def_cfa_register 6
	.loc 3 113 670
	movl	$.LC0, %eax
	.loc 3 113 678
	popq	%rbp
	.cfi_def_cfa 7, 8
	ret
	.cfi_endproc
.LFE3769:
	.size	_ZN5boost6fusion9extension18struct_member_nameI3FooLi0EE4callEv, .-_ZN5boost6fusion9extension18struct_member_nameI3FooLi0EE4callEv
	.section	.rodata
.LC1:
	.string	"foo2"
	.section	.text._ZN5boost6fusion9extension18struct_member_nameI3FooLi1EE4callEv,"axG",@progbits,_ZN5boost6fusion9extension18struct_member_nameI3FooLi1EE4callEv,comdat
	.weak	_ZN5boost6fusion9extension18struct_member_nameI3FooLi1EE4callEv
	.type	_ZN5boost6fusion9extension18struct_member_nameI3FooLi1EE4callEv, @function
_ZN5boost6fusion9extension18struct_member_nameI3FooLi1EE4callEv:
.LFB3771:
	.loc 3 113 1129
	.cfi_startproc
	pushq	%rbp
	.cfi_def_cfa_offset 16
	.cfi_offset 6, -16
	movq	%rsp, %rbp
	.cfi_def_cfa_register 6
	.loc 3 113 1145
	movl	$.LC1, %eax
	.loc 3 113 1153
	popq	%rbp
	.cfi_def_cfa 7, 8
	ret
	.cfi_endproc
.LFE3771:
	.size	_ZN5boost6fusion9extension18struct_member_nameI3FooLi1EE4callEv, .-_ZN5boost6fusion9extension18struct_member_nameI3FooLi1EE4callEv
	.section	.rodata
.LC2:
	.string	"bar1"
	.section	.text._ZN5boost6fusion9extension18struct_member_nameI3BarLi0EE4callEv,"axG",@progbits,_ZN5boost6fusion9extension18struct_member_nameI3BarLi0EE4callEv,comdat
	.weak	_ZN5boost6fusion9extension18struct_member_nameI3BarLi0EE4callEv
	.type	_ZN5boost6fusion9extension18struct_member_nameI3BarLi0EE4callEv, @function
_ZN5boost6fusion9extension18struct_member_nameI3BarLi0EE4callEv:
.LFB3773:
	.loc 3 120 657
	.cfi_startproc
	pushq	%rbp
	.cfi_def_cfa_offset 16
	.cfi_offset 6, -16
	movq	%rsp, %rbp
	.cfi_def_cfa_register 6
	.loc 3 120 673
	movl	$.LC2, %eax
	.loc 3 120 681
	popq	%rbp
	.cfi_def_cfa 7, 8
	ret
	.cfi_endproc
.LFE3773:
	.size	_ZN5boost6fusion9extension18struct_member_nameI3BarLi0EE4callEv, .-_ZN5boost6fusion9extension18struct_member_nameI3BarLi0EE4callEv
	.section	.rodata
.LC3:
	.string	"bar2"
	.section	.text._ZN5boost6fusion9extension18struct_member_nameI3BarLi1EE4callEv,"axG",@progbits,_ZN5boost6fusion9extension18struct_member_nameI3BarLi1EE4callEv,comdat
	.weak	_ZN5boost6fusion9extension18struct_member_nameI3BarLi1EE4callEv
	.type	_ZN5boost6fusion9extension18struct_member_nameI3BarLi1EE4callEv, @function
_ZN5boost6fusion9extension18struct_member_nameI3BarLi1EE4callEv:
.LFB3775:
	.loc 3 120 1137
	.cfi_startproc
	pushq	%rbp
	.cfi_def_cfa_offset 16
	.cfi_offset 6, -16
	movq	%rsp, %rbp
	.cfi_def_cfa_register 6
	.loc 3 120 1153
	movl	$.LC3, %eax
	.loc 3 120 1161
	popq	%rbp
	.cfi_def_cfa 7, 8
	ret
	.cfi_endproc
.LFE3775:
	.size	_ZN5boost6fusion9extension18struct_member_nameI3BarLi1EE4callEv, .-_ZN5boost6fusion9extension18struct_member_nameI3BarLi1EE4callEv
	.section	.text._ZN4BookC2EiPcS0_5Genreif,"axG",@progbits,_ZN4BookC5EiPcS0_5Genreif,comdat
	.align 2
	.weak	_ZN4BookC2EiPcS0_5Genreif
	.type	_ZN4BookC2EiPcS0_5Genreif, @function
_ZN4BookC2EiPcS0_5Genreif:
.LFB3777:
	.file 4 "book.h"
	.loc 4 18 5
	.cfi_startproc
	pushq	%rbp
	.cfi_def_cfa_offset 16
	.cfi_offset 6, -16
	movq	%rsp, %rbp
	.cfi_def_cfa_register 6
	subq	$48, %rsp
	movq	%rdi, -8(%rbp)
	movl	%esi, -12(%rbp)
	movq	%rdx, -24(%rbp)
	movq	%rcx, -32(%rbp)
	movl	%r8d, -16(%rbp)
	movl	%r9d, -36(%rbp)
	movss	%xmm0, -40(%rbp)
.LBB2:
	.loc 4 19 39
	movq	-8(%rbp), %rax
	movl	-12(%rbp), %edx
	movl	%edx, (%rax)
	movq	-8(%rbp), %rax
	movl	-16(%rbp), %edx
	movl	%edx, 24(%rax)
	movq	-8(%rbp), %rax
	movl	-36(%rbp), %edx
	movl	%edx, 28(%rax)
	movq	-8(%rbp), %rax
	movss	-40(%rbp), %xmm0
	movss	%xmm0, 32(%rax)
	.loc 4 20 28
	movq	-24(%rbp), %rax
	movq	%rax, %rdi
	call	strdup
	movq	%rax, %rdx
	.loc 4 20 20
	movq	-8(%rbp), %rax
	movq	%rdx, 8(%rax)
	.loc 4 21 30
	movq	-32(%rbp), %rax
	movq	%rax, %rdi
	call	strdup
	movq	%rax, %rdx
	.loc 4 21 22
	movq	-8(%rbp), %rax
	movq	%rdx, 16(%rax)
.LBE2:
	.loc 4 22 5
	nop
	leave
	.cfi_def_cfa 7, 8
	ret
	.cfi_endproc
.LFE3777:
	.size	_ZN4BookC2EiPcS0_5Genreif, .-_ZN4BookC2EiPcS0_5Genreif
	.weak	_ZN4BookC1EiPcS0_5Genreif
	.set	_ZN4BookC1EiPcS0_5Genreif,_ZN4BookC2EiPcS0_5Genreif
	.section	.rodata
.LC4:
	.string	"isbn"
	.section	.text._ZN5boost6fusion9extension18struct_member_nameI4BookLi0EE4callEv,"axG",@progbits,_ZN5boost6fusion9extension18struct_member_nameI4BookLi0EE4callEv,comdat
	.weak	_ZN5boost6fusion9extension18struct_member_nameI4BookLi0EE4callEv
	.type	_ZN5boost6fusion9extension18struct_member_nameI4BookLi0EE4callEv, @function
_ZN5boost6fusion9extension18struct_member_nameI4BookLi0EE4callEv:
.LFB3783:
	.loc 3 123 658
	.cfi_startproc
	pushq	%rbp
	.cfi_def_cfa_offset 16
	.cfi_offset 6, -16
	movq	%rsp, %rbp
	.cfi_def_cfa_register 6
	.loc 3 123 674
	movl	$.LC4, %eax
	.loc 3 123 682
	popq	%rbp
	.cfi_def_cfa 7, 8
	ret
	.cfi_endproc
.LFE3783:
	.size	_ZN5boost6fusion9extension18struct_member_nameI4BookLi0EE4callEv, .-_ZN5boost6fusion9extension18struct_member_nameI4BookLi0EE4callEv
	.section	.rodata
.LC5:
	.string	"name"
	.section	.text._ZN5boost6fusion9extension18struct_member_nameI4BookLi1EE4callEv,"axG",@progbits,_ZN5boost6fusion9extension18struct_member_nameI4BookLi1EE4callEv,comdat
	.weak	_ZN5boost6fusion9extension18struct_member_nameI4BookLi1EE4callEv
	.type	_ZN5boost6fusion9extension18struct_member_nameI4BookLi1EE4callEv, @function
_ZN5boost6fusion9extension18struct_member_nameI4BookLi1EE4callEv:
.LFB3785:
	.loc 3 123 1135
	.cfi_startproc
	pushq	%rbp
	.cfi_def_cfa_offset 16
	.cfi_offset 6, -16
	movq	%rsp, %rbp
	.cfi_def_cfa_register 6
	.loc 3 123 1151
	movl	$.LC5, %eax
	.loc 3 123 1159
	popq	%rbp
	.cfi_def_cfa 7, 8
	ret
	.cfi_endproc
.LFE3785:
	.size	_ZN5boost6fusion9extension18struct_member_nameI4BookLi1EE4callEv, .-_ZN5boost6fusion9extension18struct_member_nameI4BookLi1EE4callEv
	.section	.rodata
.LC6:
	.string	"author"
	.section	.text._ZN5boost6fusion9extension18struct_member_nameI4BookLi2EE4callEv,"axG",@progbits,_ZN5boost6fusion9extension18struct_member_nameI4BookLi2EE4callEv,comdat
	.weak	_ZN5boost6fusion9extension18struct_member_nameI4BookLi2EE4callEv
	.type	_ZN5boost6fusion9extension18struct_member_nameI4BookLi2EE4callEv, @function
_ZN5boost6fusion9extension18struct_member_nameI4BookLi2EE4callEv:
.LFB3787:
	.loc 3 123 1614
	.cfi_startproc
	pushq	%rbp
	.cfi_def_cfa_offset 16
	.cfi_offset 6, -16
	movq	%rsp, %rbp
	.cfi_def_cfa_register 6
	.loc 3 123 1630
	movl	$.LC6, %eax
	.loc 3 123 1640
	popq	%rbp
	.cfi_def_cfa 7, 8
	ret
	.cfi_endproc
.LFE3787:
	.size	_ZN5boost6fusion9extension18struct_member_nameI4BookLi2EE4callEv, .-_ZN5boost6fusion9extension18struct_member_nameI4BookLi2EE4callEv
	.section	.rodata
.LC7:
	.string	"type"
	.section	.text._ZN5boost6fusion9extension18struct_member_nameI4BookLi3EE4callEv,"axG",@progbits,_ZN5boost6fusion9extension18struct_member_nameI4BookLi3EE4callEv,comdat
	.weak	_ZN5boost6fusion9extension18struct_member_nameI4BookLi3EE4callEv
	.type	_ZN5boost6fusion9extension18struct_member_nameI4BookLi3EE4callEv, @function
_ZN5boost6fusion9extension18struct_member_nameI4BookLi3EE4callEv:
.LFB3789:
	.loc 3 123 2093
	.cfi_startproc
	pushq	%rbp
	.cfi_def_cfa_offset 16
	.cfi_offset 6, -16
	movq	%rsp, %rbp
	.cfi_def_cfa_register 6
	.loc 3 123 2109
	movl	$.LC7, %eax
	.loc 3 123 2117
	popq	%rbp
	.cfi_def_cfa 7, 8
	ret
	.cfi_endproc
.LFE3789:
	.size	_ZN5boost6fusion9extension18struct_member_nameI4BookLi3EE4callEv, .-_ZN5boost6fusion9extension18struct_member_nameI4BookLi3EE4callEv
	.section	.rodata
.LC8:
	.string	"year"
	.section	.text._ZN5boost6fusion9extension18struct_member_nameI4BookLi4EE4callEv,"axG",@progbits,_ZN5boost6fusion9extension18struct_member_nameI4BookLi4EE4callEv,comdat
	.weak	_ZN5boost6fusion9extension18struct_member_nameI4BookLi4EE4callEv
	.type	_ZN5boost6fusion9extension18struct_member_nameI4BookLi4EE4callEv, @function
_ZN5boost6fusion9extension18struct_member_nameI4BookLi4EE4callEv:
.LFB3791:
	.loc 3 123 2568
	.cfi_startproc
	pushq	%rbp
	.cfi_def_cfa_offset 16
	.cfi_offset 6, -16
	movq	%rsp, %rbp
	.cfi_def_cfa_register 6
	.loc 3 123 2584
	movl	$.LC8, %eax
	.loc 3 123 2592
	popq	%rbp
	.cfi_def_cfa 7, 8
	ret
	.cfi_endproc
.LFE3791:
	.size	_ZN5boost6fusion9extension18struct_member_nameI4BookLi4EE4callEv, .-_ZN5boost6fusion9extension18struct_member_nameI4BookLi4EE4callEv
	.section	.rodata
.LC9:
	.string	"price"
	.section	.text._ZN5boost6fusion9extension18struct_member_nameI4BookLi5EE4callEv,"axG",@progbits,_ZN5boost6fusion9extension18struct_member_nameI4BookLi5EE4callEv,comdat
	.weak	_ZN5boost6fusion9extension18struct_member_nameI4BookLi5EE4callEv
	.type	_ZN5boost6fusion9extension18struct_member_nameI4BookLi5EE4callEv, @function
_ZN5boost6fusion9extension18struct_member_nameI4BookLi5EE4callEv:
.LFB3793:
	.loc 3 123 3046
	.cfi_startproc
	pushq	%rbp
	.cfi_def_cfa_offset 16
	.cfi_offset 6, -16
	movq	%rsp, %rbp
	.cfi_def_cfa_register 6
	.loc 3 123 3062
	movl	$.LC9, %eax
	.loc 3 123 3071
	popq	%rbp
	.cfi_def_cfa 7, 8
	ret
	.cfi_endproc
.LFE3793:
	.size	_ZN5boost6fusion9extension18struct_member_nameI4BookLi5EE4callEv, .-_ZN5boost6fusion9extension18struct_member_nameI4BookLi5EE4callEv
	.section	.rodata
.LC11:
	.string	"abcd"
.LC12:
	.string	"defgh"
.LC13:
	.string	"Charles W. Misner, Kip Thorne"
.LC14:
	.string	"Gravitation"
	.text
	.globl	main
	.type	main, @function
main:
.LFB3794:
	.loc 3 125 34
	.cfi_startproc
	pushq	%rbp
	.cfi_def_cfa_offset 16
	.cfi_offset 6, -16
	movq	%rsp, %rbp
	.cfi_def_cfa_register 6
	pushq	%rbx
	subq	$72, %rsp
	.cfi_offset 3, -24
	movl	%edi, -68(%rbp)
	movq	%rsi, -80(%rbp)
	.loc 3 126 9
	movsd	.LC10(%rip), %xmm0
	movsd	%xmm0, -64(%rbp)
	movl	$3, -56(%rbp)
	movq	$.LC11, -48(%rbp)
	movl	$4, -40(%rbp)
	movq	$.LC12, -32(%rbp)
	.loc 3 127 26
	leaq	-64(%rbp), %rax
	movq	%rax, %rdi
	call	_ZN13SeqReflectionI3BarE4dumpERS0_
	.loc 3 129 107
	movl	$40, %edi
	call	_Znwm
	movq	%rax, %rbx
	movss	.LC15(%rip), %xmm0
	movl	$1973, %r9d
	movl	$1, %r8d
	movl	$.LC13, %ecx
	movl	$.LC14, %edx
	movl	$119287862, %esi
	movq	%rbx, %rdi
	call	_ZN4BookC1EiPcS0_5Genreif
	movq	%rbx, -24(%rbp)
	.loc 3 130 27
	movq	-24(%rbp), %rax
	movq	%rax, %rdi
	call	_ZN13SeqReflectionI4BookE4dumpERS0_
	.loc 3 131 12
	movl	$0, %eax
	.loc 3 132 1
	addq	$72, %rsp
	popq	%rbx
	popq	%rbp
	.cfi_def_cfa 7, 8
	ret
	.cfi_endproc
.LFE3794:
	.size	main, .-main
	.section	.rodata
.LC16:
	.string	"{"
.LC17:
	.string	"}"
	.section	.text._ZN13SeqReflectionI3BarE4dumpERS0_,"axG",@progbits,_ZN13SeqReflectionI3BarE4dumpERS0_,comdat
	.weak	_ZN13SeqReflectionI3BarE4dumpERS0_
	.type	_ZN13SeqReflectionI3BarE4dumpERS0_, @function
_ZN13SeqReflectionI3BarE4dumpERS0_:
.LFB3805:
	.loc 3 58 14
	.cfi_startproc
	pushq	%rbp
	.cfi_def_cfa_offset 16
	.cfi_offset 6, -16
	movq	%rsp, %rbp
	.cfi_def_cfa_register 6
	subq	$16, %rsp
	movq	%rdi, -8(%rbp)
	.loc 3 59 12
	movl	$.LC16, %esi
	movl	$_ZSt4cout, %edi
	call	_ZStlsISt11char_traitsIcEERSt13basic_ostreamIcT_ES5_PKc
	.loc 3 60 20
	movl	$1, %edi
	call	_ZN11PrettySpace4tickEb
	.loc 3 61 24
	movq	-8(%rbp), %rax
	movq	%rax, %rdi
	call	_ZN15ImplSeqIteratorI3BarN4mpl_4int_ILi0EEEE4dumpERS0_
	.loc 3 62 20
	movl	$0, %edi
	call	_ZN11PrettySpace4tickEb
	.loc 3 63 12
	movl	$.LC17, %esi
	movl	$_ZSt4cout, %edi
	call	_ZStlsISt11char_traitsIcEERSt13basic_ostreamIcT_ES5_PKc
	.loc 3 64 21
	call	_ZN11PrettySpace5printEv
	.loc 3 65 2
	nop
	leave
	.cfi_def_cfa 7, 8
	ret
	.cfi_endproc
.LFE3805:
	.size	_ZN13SeqReflectionI3BarE4dumpERS0_, .-_ZN13SeqReflectionI3BarE4dumpERS0_
	.section	.text._ZN13SeqReflectionI4BookE4dumpERS0_,"axG",@progbits,_ZN13SeqReflectionI4BookE4dumpERS0_,comdat
	.weak	_ZN13SeqReflectionI4BookE4dumpERS0_
	.type	_ZN13SeqReflectionI4BookE4dumpERS0_, @function
_ZN13SeqReflectionI4BookE4dumpERS0_:
.LFB3806:
	.loc 3 58 14
	.cfi_startproc
	pushq	%rbp
	.cfi_def_cfa_offset 16
	.cfi_offset 6, -16
	movq	%rsp, %rbp
	.cfi_def_cfa_register 6
	subq	$16, %rsp
	movq	%rdi, -8(%rbp)
	.loc 3 59 12
	movl	$.LC16, %esi
	movl	$_ZSt4cout, %edi
	call	_ZStlsISt11char_traitsIcEERSt13basic_ostreamIcT_ES5_PKc
	.loc 3 60 20
	movl	$1, %edi
	call	_ZN11PrettySpace4tickEb
	.loc 3 61 24
	movq	-8(%rbp), %rax
	movq	%rax, %rdi
	call	_ZN15ImplSeqIteratorI4BookN4mpl_4int_ILi0EEEE4dumpERS0_
	.loc 3 62 20
	movl	$0, %edi
	call	_ZN11PrettySpace4tickEb
	.loc 3 63 12
	movl	$.LC17, %esi
	movl	$_ZSt4cout, %edi
	call	_ZStlsISt11char_traitsIcEERSt13basic_ostreamIcT_ES5_PKc
	.loc 3 64 21
	call	_ZN11PrettySpace5printEv
	.loc 3 65 2
	nop
	leave
	.cfi_def_cfa 7, 8
	ret
	.cfi_endproc
.LFE3806:
	.size	_ZN13SeqReflectionI4BookE4dumpERS0_, .-_ZN13SeqReflectionI4BookE4dumpERS0_
	.section	.rodata
.LC18:
	.string	"="
	.section	.text._ZN15ImplSeqIteratorI3BarN4mpl_4int_ILi0EEEE4dumpERS0_,"axG",@progbits,_ZN15ImplSeqIteratorI3BarN4mpl_4int_ILi0EEEE4dumpERS0_,comdat
	.weak	_ZN15ImplSeqIteratorI3BarN4mpl_4int_ILi0EEEE4dumpERS0_
	.type	_ZN15ImplSeqIteratorI3BarN4mpl_4int_ILi0EEEE4dumpERS0_, @function
_ZN15ImplSeqIteratorI3BarN4mpl_4int_ILi0EEEE4dumpERS0_:
.LFB3812:
	.loc 3 41 21
	.cfi_startproc
	pushq	%rbp
	.cfi_def_cfa_offset 16
	.cfi_offset 6, -16
	movq	%rsp, %rbp
	.cfi_def_cfa_register 6
	subq	$16, %rsp
	movq	%rdi, -8(%rbp)
	.loc 3 42 31
	call	_ZN5boost6fusion9extension18struct_member_nameI3BarLi0EE4callEv
	movq	%rax, %rsi
	movl	$_ZSt4cout, %edi
	call	_ZStlsISt11char_traitsIcEERSt13basic_ostreamIcT_ES5_PKc
	movl	$.LC18, %esi
	movq	%rax, %rdi
	call	_ZStlsISt11char_traitsIcEERSt13basic_ostreamIcT_ES5_PKc
	.loc 3 43 51
	movq	-8(%rbp), %rax
	movq	%rax, %rdi
	call	_ZN5boost6fusion2atIN4mpl_4int_ILi0EEE3BarEENS_15lazy_disable_ifINS_8is_constIT0_EENS0_9result_of2atIS8_T_EEE4typeERS8_
	.loc 3 43 30
	movq	%rax, %rdi
	call	_ZN14VoidReflectionIdE4dumpERd
	.loc 3 44 36
	movq	-8(%rbp), %rax
	movq	%rax, %rdi
	call	_ZN5boost6fusion2atIN4mpl_4int_ILi0EEE3BarEENS_15lazy_disable_ifINS_8is_constIT0_EENS0_9result_of2atIS8_T_EEE4typeERS8_
	.loc 3 44 13
	movsd	(%rax), %xmm0
	movl	$_ZSt4cout, %edi
	call	_ZNSolsEd
	.loc 3 45 21
	call	_ZN5CommaI3BarN4mpl_4int_ILi0EEEE5commaEv
	.loc 3 46 35
	movq	-8(%rbp), %rax
	movq	%rax, %rdi
	call	_ZN15ImplSeqIteratorI3BarN4mpl_4int_ILi1EEEE4dumpERS0_
	.loc 3 47 2
	nop
	leave
	.cfi_def_cfa 7, 8
	ret
	.cfi_endproc
.LFE3812:
	.size	_ZN15ImplSeqIteratorI3BarN4mpl_4int_ILi0EEEE4dumpERS0_, .-_ZN15ImplSeqIteratorI3BarN4mpl_4int_ILi0EEEE4dumpERS0_
	.section	.text._ZN15ImplSeqIteratorI4BookN4mpl_4int_ILi0EEEE4dumpERS0_,"axG",@progbits,_ZN15ImplSeqIteratorI4BookN4mpl_4int_ILi0EEEE4dumpERS0_,comdat
	.weak	_ZN15ImplSeqIteratorI4BookN4mpl_4int_ILi0EEEE4dumpERS0_
	.type	_ZN15ImplSeqIteratorI4BookN4mpl_4int_ILi0EEEE4dumpERS0_, @function
_ZN15ImplSeqIteratorI4BookN4mpl_4int_ILi0EEEE4dumpERS0_:
.LFB3813:
	.loc 3 41 21
	.cfi_startproc
	pushq	%rbp
	.cfi_def_cfa_offset 16
	.cfi_offset 6, -16
	movq	%rsp, %rbp
	.cfi_def_cfa_register 6
	subq	$16, %rsp
	movq	%rdi, -8(%rbp)
	.loc 3 42 31
	call	_ZN5boost6fusion9extension18struct_member_nameI4BookLi0EE4callEv
	movq	%rax, %rsi
	movl	$_ZSt4cout, %edi
	call	_ZStlsISt11char_traitsIcEERSt13basic_ostreamIcT_ES5_PKc
	movl	$.LC18, %esi
	movq	%rax, %rdi
	call	_ZStlsISt11char_traitsIcEERSt13basic_ostreamIcT_ES5_PKc
	.loc 3 43 51
	movq	-8(%rbp), %rax
	movq	%rax, %rdi
	call	_ZN5boost6fusion2atIN4mpl_4int_ILi0EEE4BookEENS_15lazy_disable_ifINS_8is_constIT0_EENS0_9result_of2atIS8_T_EEE4typeERS8_
	.loc 3 43 30
	movq	%rax, %rdi
	call	_ZN14VoidReflectionIiE4dumpERi
	.loc 3 44 36
	movq	-8(%rbp), %rax
	movq	%rax, %rdi
	call	_ZN5boost6fusion2atIN4mpl_4int_ILi0EEE4BookEENS_15lazy_disable_ifINS_8is_constIT0_EENS0_9result_of2atIS8_T_EEE4typeERS8_
	.loc 3 44 13
	movl	(%rax), %eax
	movl	%eax, %esi
	movl	$_ZSt4cout, %edi
	call	_ZNSolsEi
	.loc 3 45 21
	call	_ZN5CommaI4BookN4mpl_4int_ILi0EEEE5commaEv
	.loc 3 46 35
	movq	-8(%rbp), %rax
	movq	%rax, %rdi
	call	_ZN15ImplSeqIteratorI4BookN4mpl_4int_ILi1EEEE4dumpERS0_
	.loc 3 47 2
	nop
	leave
	.cfi_def_cfa 7, 8
	ret
	.cfi_endproc
.LFE3813:
	.size	_ZN15ImplSeqIteratorI4BookN4mpl_4int_ILi0EEEE4dumpERS0_, .-_ZN15ImplSeqIteratorI4BookN4mpl_4int_ILi0EEEE4dumpERS0_
	.section	.rodata
.LC19:
	.string	"("
.LC20:
	.string	")"
	.section	.text._ZN14VoidReflectionIdE4dumpERd,"axG",@progbits,_ZN14VoidReflectionIdE4dumpERd,comdat
	.weak	_ZN14VoidReflectionIdE4dumpERd
	.type	_ZN14VoidReflectionIdE4dumpERd, @function
_ZN14VoidReflectionIdE4dumpERd:
.LFB3817:
	.loc 3 89 14
	.cfi_startproc
	pushq	%rbp
	.cfi_def_cfa_offset 16
	.cfi_offset 6, -16
	movq	%rsp, %rbp
	.cfi_def_cfa_register 6
	subq	$32, %rsp
	movq	%rdi, -24(%rbp)
	.loc 3 90 7
	movl	$0, -12(%rbp)
	.loc 3 91 45
	movl	$_ZTId, %edi
	call	_ZNKSt9type_info4nameEv
	movq	%rax, %rdi
	leaq	-12(%rbp), %rax
	movq	%rax, %rcx
	movl	$0, %edx
	movl	$0, %esi
	call	__cxa_demangle
	movq	%rax, -8(%rbp)
	.loc 3 92 29
	movl	$.LC19, %esi
	movl	$_ZSt4cout, %edi
	call	_ZStlsISt11char_traitsIcEERSt13basic_ostreamIcT_ES5_PKc
	movq	%rax, %rdx
	movq	-8(%rbp), %rax
	movq	%rax, %rsi
	movq	%rdx, %rdi
	call	_ZStlsISt11char_traitsIcEERSt13basic_ostreamIcT_ES5_PKc
	movl	$.LC20, %esi
	movq	%rax, %rdi
	call	_ZStlsISt11char_traitsIcEERSt13basic_ostreamIcT_ES5_PKc
	.loc 3 93 21
	call	_ZN11PrettySpace5printEv
	.loc 3 94 2
	nop
	leave
	.cfi_def_cfa 7, 8
	ret
	.cfi_endproc
.LFE3817:
	.size	_ZN14VoidReflectionIdE4dumpERd, .-_ZN14VoidReflectionIdE4dumpERd
	.section	.text._ZN5boost6fusion2atIN4mpl_4int_ILi0EEE3BarEENS_15lazy_disable_ifINS_8is_constIT0_EENS0_9result_of2atIS8_T_EEE4typeERS8_,"axG",@progbits,_ZN5boost6fusion2atIN4mpl_4int_ILi0EEE3BarEENS_15lazy_disable_ifINS_8is_constIT0_EENS0_9result_of2atIS8_T_EEE4typeERS8_,comdat
	.weak	_ZN5boost6fusion2atIN4mpl_4int_ILi0EEE3BarEENS_15lazy_disable_ifINS_8is_constIT0_EENS0_9result_of2atIS8_T_EEE4typeERS8_
	.type	_ZN5boost6fusion2atIN4mpl_4int_ILi0EEE3BarEENS_15lazy_disable_ifINS_8is_constIT0_EENS0_9result_of2atIS8_T_EEE4typeERS8_, @function
_ZN5boost6fusion2atIN4mpl_4int_ILi0EEE3BarEENS_15lazy_disable_ifINS_8is_constIT0_EENS0_9result_of2atIS8_T_EEE4typeERS8_:
.LFB3818:
	.file 5 "./include/boost/fusion/sequence/intrinsic/at.hpp"
	.loc 5 99 5
	.cfi_startproc
	pushq	%rbp
	.cfi_def_cfa_offset 16
	.cfi_offset 6, -16
	movq	%rsp, %rbp
	.cfi_def_cfa_register 6
	subq	$16, %rsp
	movq	%rdi, -8(%rbp)
	.loc 5 101 48
	movq	-8(%rbp), %rax
	movq	%rax, %rdi
	call	_ZN5boost6fusion9extension6access13struct_memberI3BarLi0EE5applyIS4_E4callERS4_
	.loc 5 102 5
	leave
	.cfi_def_cfa 7, 8
	ret
	.cfi_endproc
.LFE3818:
	.size	_ZN5boost6fusion2atIN4mpl_4int_ILi0EEE3BarEENS_15lazy_disable_ifINS_8is_constIT0_EENS0_9result_of2atIS8_T_EEE4typeERS8_, .-_ZN5boost6fusion2atIN4mpl_4int_ILi0EEE3BarEENS_15lazy_disable_ifINS_8is_constIT0_EENS0_9result_of2atIS8_T_EEE4typeERS8_
	.section	.rodata
.LC21:
	.string	", "
	.section	.text._ZN5CommaI3BarN4mpl_4int_ILi0EEEE5commaEv,"axG",@progbits,_ZN5CommaI3BarN4mpl_4int_ILi0EEEE5commaEv,comdat
	.weak	_ZN5CommaI3BarN4mpl_4int_ILi0EEEE5commaEv
	.type	_ZN5CommaI3BarN4mpl_4int_ILi0EEEE5commaEv, @function
_ZN5CommaI3BarN4mpl_4int_ILi0EEEE5commaEv:
.LFB3820:
	.loc 3 29 21
	.cfi_startproc
	pushq	%rbp
	.cfi_def_cfa_offset 16
	.cfi_offset 6, -16
	movq	%rsp, %rbp
	.cfi_def_cfa_register 6
	.loc 3 29 37
	movl	$.LC21, %edi
	movl	$0, %eax
	call	printf
	.loc 3 29 45
	nop
	popq	%rbp
	.cfi_def_cfa 7, 8
	ret
	.cfi_endproc
.LFE3820:
	.size	_ZN5CommaI3BarN4mpl_4int_ILi0EEEE5commaEv, .-_ZN5CommaI3BarN4mpl_4int_ILi0EEEE5commaEv
	.section	.text._ZN15ImplSeqIteratorI3BarN4mpl_4int_ILi1EEEE4dumpERS0_,"axG",@progbits,_ZN15ImplSeqIteratorI3BarN4mpl_4int_ILi1EEEE4dumpERS0_,comdat
	.weak	_ZN15ImplSeqIteratorI3BarN4mpl_4int_ILi1EEEE4dumpERS0_
	.type	_ZN15ImplSeqIteratorI3BarN4mpl_4int_ILi1EEEE4dumpERS0_, @function
_ZN15ImplSeqIteratorI3BarN4mpl_4int_ILi1EEEE4dumpERS0_:
.LFB3821:
	.loc 3 41 21
	.cfi_startproc
	pushq	%rbp
	.cfi_def_cfa_offset 16
	.cfi_offset 6, -16
	movq	%rsp, %rbp
	.cfi_def_cfa_register 6
	subq	$16, %rsp
	movq	%rdi, -8(%rbp)
	.loc 3 42 31
	call	_ZN5boost6fusion9extension18struct_member_nameI3BarLi1EE4callEv
	movq	%rax, %rsi
	movl	$_ZSt4cout, %edi
	call	_ZStlsISt11char_traitsIcEERSt13basic_ostreamIcT_ES5_PKc
	movl	$.LC18, %esi
	movq	%rax, %rdi
	call	_ZStlsISt11char_traitsIcEERSt13basic_ostreamIcT_ES5_PKc
	.loc 3 43 51
	movq	-8(%rbp), %rax
	movq	%rax, %rdi
	call	_ZN5boost6fusion2atIN4mpl_4int_ILi1EEE3BarEENS_15lazy_disable_ifINS_8is_constIT0_EENS0_9result_of2atIS8_T_EEE4typeERS8_
	.loc 3 43 30
	movq	%rax, %rdi
	call	_ZN13ArrReflectionIA2_3FooE4dumpERS1_
	.loc 3 44 36
	movq	-8(%rbp), %rax
	movq	%rax, %rdi
	call	_ZN5boost6fusion2atIN4mpl_4int_ILi1EEE3BarEENS_15lazy_disable_ifINS_8is_constIT0_EENS0_9result_of2atIS8_T_EEE4typeERS8_
	.loc 3 44 13
	movq	%rax, %rsi
	movl	$_ZSt4cout, %edi
	call	_ZNSolsEPKv
	.loc 3 45 21
	call	_ZN5CommaI3BarN4mpl_4int_ILi1EEEE5commaEv
	.loc 3 46 35
	movq	-8(%rbp), %rax
	movq	%rax, %rdi
	call	_ZN15ImplSeqIteratorI3BarN4mpl_4int_ILi2EEEE4dumpERS0_
	.loc 3 47 2
	nop
	leave
	.cfi_def_cfa 7, 8
	ret
	.cfi_endproc
.LFE3821:
	.size	_ZN15ImplSeqIteratorI3BarN4mpl_4int_ILi1EEEE4dumpERS0_, .-_ZN15ImplSeqIteratorI3BarN4mpl_4int_ILi1EEEE4dumpERS0_
	.section	.text._ZN14VoidReflectionIiE4dumpERi,"axG",@progbits,_ZN14VoidReflectionIiE4dumpERi,comdat
	.weak	_ZN14VoidReflectionIiE4dumpERi
	.type	_ZN14VoidReflectionIiE4dumpERi, @function
_ZN14VoidReflectionIiE4dumpERi:
.LFB3822:
	.loc 3 89 14
	.cfi_startproc
	pushq	%rbp
	.cfi_def_cfa_offset 16
	.cfi_offset 6, -16
	movq	%rsp, %rbp
	.cfi_def_cfa_register 6
	subq	$32, %rsp
	movq	%rdi, -24(%rbp)
	.loc 3 90 7
	movl	$0, -12(%rbp)
	.loc 3 91 45
	movl	$_ZTIi, %edi
	call	_ZNKSt9type_info4nameEv
	movq	%rax, %rdi
	leaq	-12(%rbp), %rax
	movq	%rax, %rcx
	movl	$0, %edx
	movl	$0, %esi
	call	__cxa_demangle
	movq	%rax, -8(%rbp)
	.loc 3 92 29
	movl	$.LC19, %esi
	movl	$_ZSt4cout, %edi
	call	_ZStlsISt11char_traitsIcEERSt13basic_ostreamIcT_ES5_PKc
	movq	%rax, %rdx
	movq	-8(%rbp), %rax
	movq	%rax, %rsi
	movq	%rdx, %rdi
	call	_ZStlsISt11char_traitsIcEERSt13basic_ostreamIcT_ES5_PKc
	movl	$.LC20, %esi
	movq	%rax, %rdi
	call	_ZStlsISt11char_traitsIcEERSt13basic_ostreamIcT_ES5_PKc
	.loc 3 93 21
	call	_ZN11PrettySpace5printEv
	.loc 3 94 2
	nop
	leave
	.cfi_def_cfa 7, 8
	ret
	.cfi_endproc
.LFE3822:
	.size	_ZN14VoidReflectionIiE4dumpERi, .-_ZN14VoidReflectionIiE4dumpERi
	.section	.text._ZN5boost6fusion2atIN4mpl_4int_ILi0EEE4BookEENS_15lazy_disable_ifINS_8is_constIT0_EENS0_9result_of2atIS8_T_EEE4typeERS8_,"axG",@progbits,_ZN5boost6fusion2atIN4mpl_4int_ILi0EEE4BookEENS_15lazy_disable_ifINS_8is_constIT0_EENS0_9result_of2atIS8_T_EEE4typeERS8_,comdat
	.weak	_ZN5boost6fusion2atIN4mpl_4int_ILi0EEE4BookEENS_15lazy_disable_ifINS_8is_constIT0_EENS0_9result_of2atIS8_T_EEE4typeERS8_
	.type	_ZN5boost6fusion2atIN4mpl_4int_ILi0EEE4BookEENS_15lazy_disable_ifINS_8is_constIT0_EENS0_9result_of2atIS8_T_EEE4typeERS8_, @function
_ZN5boost6fusion2atIN4mpl_4int_ILi0EEE4BookEENS_15lazy_disable_ifINS_8is_constIT0_EENS0_9result_of2atIS8_T_EEE4typeERS8_:
.LFB3823:
	.loc 5 99 5
	.cfi_startproc
	pushq	%rbp
	.cfi_def_cfa_offset 16
	.cfi_offset 6, -16
	movq	%rsp, %rbp
	.cfi_def_cfa_register 6
	subq	$16, %rsp
	movq	%rdi, -8(%rbp)
	.loc 5 101 48
	movq	-8(%rbp), %rax
	movq	%rax, %rdi
	call	_ZN5boost6fusion9extension6access13struct_memberI4BookLi0EE5applyIS4_E4callERS4_
	.loc 5 102 5
	leave
	.cfi_def_cfa 7, 8
	ret
	.cfi_endproc
.LFE3823:
	.size	_ZN5boost6fusion2atIN4mpl_4int_ILi0EEE4BookEENS_15lazy_disable_ifINS_8is_constIT0_EENS0_9result_of2atIS8_T_EEE4typeERS8_, .-_ZN5boost6fusion2atIN4mpl_4int_ILi0EEE4BookEENS_15lazy_disable_ifINS_8is_constIT0_EENS0_9result_of2atIS8_T_EEE4typeERS8_
	.section	.text._ZN5CommaI4BookN4mpl_4int_ILi0EEEE5commaEv,"axG",@progbits,_ZN5CommaI4BookN4mpl_4int_ILi0EEEE5commaEv,comdat
	.weak	_ZN5CommaI4BookN4mpl_4int_ILi0EEEE5commaEv
	.type	_ZN5CommaI4BookN4mpl_4int_ILi0EEEE5commaEv, @function
_ZN5CommaI4BookN4mpl_4int_ILi0EEEE5commaEv:
.LFB3824:
	.loc 3 29 21
	.cfi_startproc
	pushq	%rbp
	.cfi_def_cfa_offset 16
	.cfi_offset 6, -16
	movq	%rsp, %rbp
	.cfi_def_cfa_register 6
	.loc 3 29 37
	movl	$.LC21, %edi
	movl	$0, %eax
	call	printf
	.loc 3 29 45
	nop
	popq	%rbp
	.cfi_def_cfa 7, 8
	ret
	.cfi_endproc
.LFE3824:
	.size	_ZN5CommaI4BookN4mpl_4int_ILi0EEEE5commaEv, .-_ZN5CommaI4BookN4mpl_4int_ILi0EEEE5commaEv
	.section	.text._ZN15ImplSeqIteratorI4BookN4mpl_4int_ILi1EEEE4dumpERS0_,"axG",@progbits,_ZN15ImplSeqIteratorI4BookN4mpl_4int_ILi1EEEE4dumpERS0_,comdat
	.weak	_ZN15ImplSeqIteratorI4BookN4mpl_4int_ILi1EEEE4dumpERS0_
	.type	_ZN15ImplSeqIteratorI4BookN4mpl_4int_ILi1EEEE4dumpERS0_, @function
_ZN15ImplSeqIteratorI4BookN4mpl_4int_ILi1EEEE4dumpERS0_:
.LFB3825:
	.loc 3 41 21
	.cfi_startproc
	pushq	%rbp
	.cfi_def_cfa_offset 16
	.cfi_offset 6, -16
	movq	%rsp, %rbp
	.cfi_def_cfa_register 6
	subq	$16, %rsp
	movq	%rdi, -8(%rbp)
	.loc 3 42 31
	call	_ZN5boost6fusion9extension18struct_member_nameI4BookLi1EE4callEv
	movq	%rax, %rsi
	movl	$_ZSt4cout, %edi
	call	_ZStlsISt11char_traitsIcEERSt13basic_ostreamIcT_ES5_PKc
	movl	$.LC18, %esi
	movq	%rax, %rdi
	call	_ZStlsISt11char_traitsIcEERSt13basic_ostreamIcT_ES5_PKc
	.loc 3 43 51
	movq	-8(%rbp), %rax
	movq	%rax, %rdi
	call	_ZN5boost6fusion2atIN4mpl_4int_ILi1EEE4BookEENS_15lazy_disable_ifINS_8is_constIT0_EENS0_9result_of2atIS8_T_EEE4typeERS8_
	.loc 3 43 30
	movq	%rax, %rdi
	call	_ZN14VoidReflectionIPcE4dumpERS0_
	.loc 3 44 36
	movq	-8(%rbp), %rax
	movq	%rax, %rdi
	call	_ZN5boost6fusion2atIN4mpl_4int_ILi1EEE4BookEENS_15lazy_disable_ifINS_8is_constIT0_EENS0_9result_of2atIS8_T_EEE4typeERS8_
	.loc 3 44 13
	movq	(%rax), %rax
	movq	%rax, %rsi
	movl	$_ZSt4cout, %edi
	call	_ZStlsISt11char_traitsIcEERSt13basic_ostreamIcT_ES5_PKc
	.loc 3 45 21
	call	_ZN5CommaI4BookN4mpl_4int_ILi1EEEE5commaEv
	.loc 3 46 35
	movq	-8(%rbp), %rax
	movq	%rax, %rdi
	call	_ZN15ImplSeqIteratorI4BookN4mpl_4int_ILi2EEEE4dumpERS0_
	.loc 3 47 2
	nop
	leave
	.cfi_def_cfa 7, 8
	ret
	.cfi_endproc
.LFE3825:
	.size	_ZN15ImplSeqIteratorI4BookN4mpl_4int_ILi1EEEE4dumpERS0_, .-_ZN15ImplSeqIteratorI4BookN4mpl_4int_ILi1EEEE4dumpERS0_
	.section	.text._ZN5boost6fusion9extension6access13struct_memberI3BarLi0EE5applyIS4_E4callERS4_,"axG",@progbits,_ZN5boost6fusion9extension6access13struct_memberI3BarLi0EE5applyIS4_E4callERS4_,comdat
	.weak	_ZN5boost6fusion9extension6access13struct_memberI3BarLi0EE5applyIS4_E4callERS4_
	.type	_ZN5boost6fusion9extension6access13struct_memberI3BarLi0EE5applyIS4_E4callERS4_, @function
_ZN5boost6fusion9extension6access13struct_memberI3BarLi0EE5applyIS4_E4callERS4_:
.LFB3827:
	.loc 3 120 525
	.cfi_startproc
	pushq	%rbp
	.cfi_def_cfa_offset 16
	.cfi_offset 6, -16
	movq	%rsp, %rbp
	.cfi_def_cfa_register 6
	movq	%rdi, -8(%rbp)
	.loc 3 120 554
	movq	-8(%rbp), %rax
	.loc 3 120 560
	popq	%rbp
	.cfi_def_cfa 7, 8
	ret
	.cfi_endproc
.LFE3827:
	.size	_ZN5boost6fusion9extension6access13struct_memberI3BarLi0EE5applyIS4_E4callERS4_, .-_ZN5boost6fusion9extension6access13struct_memberI3BarLi0EE5applyIS4_E4callERS4_
	.section	.rodata
.LC22:
	.string	"["
.LC23:
	.string	"]"
	.section	.text._ZN13ArrReflectionIA2_3FooE4dumpERS1_,"axG",@progbits,_ZN13ArrReflectionIA2_3FooE4dumpERS1_,comdat
	.weak	_ZN13ArrReflectionIA2_3FooE4dumpERS1_
	.type	_ZN13ArrReflectionIA2_3FooE4dumpERS1_, @function
_ZN13ArrReflectionIA2_3FooE4dumpERS1_:
.LFB3828:
	.loc 3 72 21
	.cfi_startproc
	pushq	%rbp
	.cfi_def_cfa_offset 16
	.cfi_offset 6, -16
	movq	%rsp, %rbp
	.cfi_def_cfa_register 6
	subq	$32, %rsp
	movq	%rdi, -24(%rbp)
	.loc 3 73 12
	movl	$.LC22, %esi
	movl	$_ZSt4cout, %edi
	call	_ZStlsISt11char_traitsIcEERSt13basic_ostreamIcT_ES5_PKc
	.loc 3 74 20
	movl	$1, %edi
	call	_ZN11PrettySpace4tickEb
.LBB3:
	.loc 3 75 15
	movq	$0, -8(%rbp)
.L55:
	.loc 3 75 25 discriminator 1
	cmpq	$1, -8(%rbp)
	ja	.L53
	.loc 3 76 31
	movq	-8(%rbp), %rax
	salq	$4, %rax
	movq	%rax, %rdx
	movq	-24(%rbp), %rax
	addq	%rdx, %rax
	.loc 3 76 29
	movq	%rax, %rdi
	call	_ZN13SeqReflectionI3FooE4dumpERS0_
	.loc 3 77 4
	cmpq	$0, -8(%rbp)
	jne	.L54
	.loc 3 78 14
	movl	$.LC21, %esi
	movl	$_ZSt4cout, %edi
	call	_ZStlsISt11char_traitsIcEERSt13basic_ostreamIcT_ES5_PKc
.L54:
	.loc 3 75 3 discriminator 2
	addq	$1, -8(%rbp)
	jmp	.L55
.L53:
.LBE3:
	.loc 3 81 20
	movl	$0, %edi
	call	_ZN11PrettySpace4tickEb
	.loc 3 82 12
	movl	$.LC23, %esi
	movl	$_ZSt4cout, %edi
	call	_ZStlsISt11char_traitsIcEERSt13basic_ostreamIcT_ES5_PKc
	.loc 3 83 21
	call	_ZN11PrettySpace5printEv
	.loc 3 84 2
	nop
	leave
	.cfi_def_cfa 7, 8
	ret
	.cfi_endproc
.LFE3828:
	.size	_ZN13ArrReflectionIA2_3FooE4dumpERS1_, .-_ZN13ArrReflectionIA2_3FooE4dumpERS1_
	.section	.text._ZN5boost6fusion2atIN4mpl_4int_ILi1EEE3BarEENS_15lazy_disable_ifINS_8is_constIT0_EENS0_9result_of2atIS8_T_EEE4typeERS8_,"axG",@progbits,_ZN5boost6fusion2atIN4mpl_4int_ILi1EEE3BarEENS_15lazy_disable_ifINS_8is_constIT0_EENS0_9result_of2atIS8_T_EEE4typeERS8_,comdat
	.weak	_ZN5boost6fusion2atIN4mpl_4int_ILi1EEE3BarEENS_15lazy_disable_ifINS_8is_constIT0_EENS0_9result_of2atIS8_T_EEE4typeERS8_
	.type	_ZN5boost6fusion2atIN4mpl_4int_ILi1EEE3BarEENS_15lazy_disable_ifINS_8is_constIT0_EENS0_9result_of2atIS8_T_EEE4typeERS8_, @function
_ZN5boost6fusion2atIN4mpl_4int_ILi1EEE3BarEENS_15lazy_disable_ifINS_8is_constIT0_EENS0_9result_of2atIS8_T_EEE4typeERS8_:
.LFB3829:
	.loc 5 99 5
	.cfi_startproc
	pushq	%rbp
	.cfi_def_cfa_offset 16
	.cfi_offset 6, -16
	movq	%rsp, %rbp
	.cfi_def_cfa_register 6
	subq	$16, %rsp
	movq	%rdi, -8(%rbp)
	.loc 5 101 48
	movq	-8(%rbp), %rax
	movq	%rax, %rdi
	call	_ZN5boost6fusion9extension6access13struct_memberI3BarLi1EE5applyIS4_E4callERS4_
	.loc 5 102 5
	leave
	.cfi_def_cfa 7, 8
	ret
	.cfi_endproc
.LFE3829:
	.size	_ZN5boost6fusion2atIN4mpl_4int_ILi1EEE3BarEENS_15lazy_disable_ifINS_8is_constIT0_EENS0_9result_of2atIS8_T_EEE4typeERS8_, .-_ZN5boost6fusion2atIN4mpl_4int_ILi1EEE3BarEENS_15lazy_disable_ifINS_8is_constIT0_EENS0_9result_of2atIS8_T_EEE4typeERS8_
	.section	.text._ZN5CommaI3BarN4mpl_4int_ILi1EEEE5commaEv,"axG",@progbits,_ZN5CommaI3BarN4mpl_4int_ILi1EEEE5commaEv,comdat
	.weak	_ZN5CommaI3BarN4mpl_4int_ILi1EEEE5commaEv
	.type	_ZN5CommaI3BarN4mpl_4int_ILi1EEEE5commaEv, @function
_ZN5CommaI3BarN4mpl_4int_ILi1EEEE5commaEv:
.LFB3831:
	.loc 3 34 21
	.cfi_startproc
	pushq	%rbp
	.cfi_def_cfa_offset 16
	.cfi_offset 6, -16
	movq	%rsp, %rbp
	.cfi_def_cfa_register 6
	.loc 3 34 30
	nop
	popq	%rbp
	.cfi_def_cfa 7, 8
	ret
	.cfi_endproc
.LFE3831:
	.size	_ZN5CommaI3BarN4mpl_4int_ILi1EEEE5commaEv, .-_ZN5CommaI3BarN4mpl_4int_ILi1EEEE5commaEv
	.section	.text._ZN15ImplSeqIteratorI3BarN4mpl_4int_ILi2EEEE4dumpERS0_,"axG",@progbits,_ZN15ImplSeqIteratorI3BarN4mpl_4int_ILi2EEEE4dumpERS0_,comdat
	.weak	_ZN15ImplSeqIteratorI3BarN4mpl_4int_ILi2EEEE4dumpERS0_
	.type	_ZN15ImplSeqIteratorI3BarN4mpl_4int_ILi2EEEE4dumpERS0_, @function
_ZN15ImplSeqIteratorI3BarN4mpl_4int_ILi2EEEE4dumpERS0_:
.LFB3832:
	.loc 3 51 21
	.cfi_startproc
	pushq	%rbp
	.cfi_def_cfa_offset 16
	.cfi_offset 6, -16
	movq	%rsp, %rbp
	.cfi_def_cfa_register 6
	movq	%rdi, -8(%rbp)
	.loc 3 51 34
	nop
	popq	%rbp
	.cfi_def_cfa 7, 8
	ret
	.cfi_endproc
.LFE3832:
	.size	_ZN15ImplSeqIteratorI3BarN4mpl_4int_ILi2EEEE4dumpERS0_, .-_ZN15ImplSeqIteratorI3BarN4mpl_4int_ILi2EEEE4dumpERS0_
	.section	.text._ZN5boost6fusion9extension6access13struct_memberI4BookLi0EE5applyIS4_E4callERS4_,"axG",@progbits,_ZN5boost6fusion9extension6access13struct_memberI4BookLi0EE5applyIS4_E4callERS4_,comdat
	.weak	_ZN5boost6fusion9extension6access13struct_memberI4BookLi0EE5applyIS4_E4callERS4_
	.type	_ZN5boost6fusion9extension6access13struct_memberI4BookLi0EE5applyIS4_E4callERS4_, @function
_ZN5boost6fusion9extension6access13struct_memberI4BookLi0EE5applyIS4_E4callERS4_:
.LFB3833:
	.loc 3 123 525
	.cfi_startproc
	pushq	%rbp
	.cfi_def_cfa_offset 16
	.cfi_offset 6, -16
	movq	%rsp, %rbp
	.cfi_def_cfa_register 6
	movq	%rdi, -8(%rbp)
	.loc 3 123 554
	movq	-8(%rbp), %rax
	.loc 3 123 560
	popq	%rbp
	.cfi_def_cfa 7, 8
	ret
	.cfi_endproc
.LFE3833:
	.size	_ZN5boost6fusion9extension6access13struct_memberI4BookLi0EE5applyIS4_E4callERS4_, .-_ZN5boost6fusion9extension6access13struct_memberI4BookLi0EE5applyIS4_E4callERS4_
	.section	.text._ZN14VoidReflectionIPcE4dumpERS0_,"axG",@progbits,_ZN14VoidReflectionIPcE4dumpERS0_,comdat
	.weak	_ZN14VoidReflectionIPcE4dumpERS0_
	.type	_ZN14VoidReflectionIPcE4dumpERS0_, @function
_ZN14VoidReflectionIPcE4dumpERS0_:
.LFB3834:
	.loc 3 89 14
	.cfi_startproc
	pushq	%rbp
	.cfi_def_cfa_offset 16
	.cfi_offset 6, -16
	movq	%rsp, %rbp
	.cfi_def_cfa_register 6
	subq	$32, %rsp
	movq	%rdi, -24(%rbp)
	.loc 3 90 7
	movl	$0, -12(%rbp)
	.loc 3 91 45
	movl	$_ZTIPc, %edi
	call	_ZNKSt9type_info4nameEv
	movq	%rax, %rdi
	leaq	-12(%rbp), %rax
	movq	%rax, %rcx
	movl	$0, %edx
	movl	$0, %esi
	call	__cxa_demangle
	movq	%rax, -8(%rbp)
	.loc 3 92 29
	movl	$.LC19, %esi
	movl	$_ZSt4cout, %edi
	call	_ZStlsISt11char_traitsIcEERSt13basic_ostreamIcT_ES5_PKc
	movq	%rax, %rdx
	movq	-8(%rbp), %rax
	movq	%rax, %rsi
	movq	%rdx, %rdi
	call	_ZStlsISt11char_traitsIcEERSt13basic_ostreamIcT_ES5_PKc
	movl	$.LC20, %esi
	movq	%rax, %rdi
	call	_ZStlsISt11char_traitsIcEERSt13basic_ostreamIcT_ES5_PKc
	.loc 3 93 21
	call	_ZN11PrettySpace5printEv
	.loc 3 94 2
	nop
	leave
	.cfi_def_cfa 7, 8
	ret
	.cfi_endproc
.LFE3834:
	.size	_ZN14VoidReflectionIPcE4dumpERS0_, .-_ZN14VoidReflectionIPcE4dumpERS0_
	.section	.text._ZN5boost6fusion2atIN4mpl_4int_ILi1EEE4BookEENS_15lazy_disable_ifINS_8is_constIT0_EENS0_9result_of2atIS8_T_EEE4typeERS8_,"axG",@progbits,_ZN5boost6fusion2atIN4mpl_4int_ILi1EEE4BookEENS_15lazy_disable_ifINS_8is_constIT0_EENS0_9result_of2atIS8_T_EEE4typeERS8_,comdat
	.weak	_ZN5boost6fusion2atIN4mpl_4int_ILi1EEE4BookEENS_15lazy_disable_ifINS_8is_constIT0_EENS0_9result_of2atIS8_T_EEE4typeERS8_
	.type	_ZN5boost6fusion2atIN4mpl_4int_ILi1EEE4BookEENS_15lazy_disable_ifINS_8is_constIT0_EENS0_9result_of2atIS8_T_EEE4typeERS8_, @function
_ZN5boost6fusion2atIN4mpl_4int_ILi1EEE4BookEENS_15lazy_disable_ifINS_8is_constIT0_EENS0_9result_of2atIS8_T_EEE4typeERS8_:
.LFB3835:
	.loc 5 99 5
	.cfi_startproc
	pushq	%rbp
	.cfi_def_cfa_offset 16
	.cfi_offset 6, -16
	movq	%rsp, %rbp
	.cfi_def_cfa_register 6
	subq	$16, %rsp
	movq	%rdi, -8(%rbp)
	.loc 5 101 48
	movq	-8(%rbp), %rax
	movq	%rax, %rdi
	call	_ZN5boost6fusion9extension6access13struct_memberI4BookLi1EE5applyIS4_E4callERS4_
	.loc 5 102 5
	leave
	.cfi_def_cfa 7, 8
	ret
	.cfi_endproc
.LFE3835:
	.size	_ZN5boost6fusion2atIN4mpl_4int_ILi1EEE4BookEENS_15lazy_disable_ifINS_8is_constIT0_EENS0_9result_of2atIS8_T_EEE4typeERS8_, .-_ZN5boost6fusion2atIN4mpl_4int_ILi1EEE4BookEENS_15lazy_disable_ifINS_8is_constIT0_EENS0_9result_of2atIS8_T_EEE4typeERS8_
	.section	.text._ZN5CommaI4BookN4mpl_4int_ILi1EEEE5commaEv,"axG",@progbits,_ZN5CommaI4BookN4mpl_4int_ILi1EEEE5commaEv,comdat
	.weak	_ZN5CommaI4BookN4mpl_4int_ILi1EEEE5commaEv
	.type	_ZN5CommaI4BookN4mpl_4int_ILi1EEEE5commaEv, @function
_ZN5CommaI4BookN4mpl_4int_ILi1EEEE5commaEv:
.LFB3836:
	.loc 3 29 21
	.cfi_startproc
	pushq	%rbp
	.cfi_def_cfa_offset 16
	.cfi_offset 6, -16
	movq	%rsp, %rbp
	.cfi_def_cfa_register 6
	.loc 3 29 37
	movl	$.LC21, %edi
	movl	$0, %eax
	call	printf
	.loc 3 29 45
	nop
	popq	%rbp
	.cfi_def_cfa 7, 8
	ret
	.cfi_endproc
.LFE3836:
	.size	_ZN5CommaI4BookN4mpl_4int_ILi1EEEE5commaEv, .-_ZN5CommaI4BookN4mpl_4int_ILi1EEEE5commaEv
	.section	.text._ZN15ImplSeqIteratorI4BookN4mpl_4int_ILi2EEEE4dumpERS0_,"axG",@progbits,_ZN15ImplSeqIteratorI4BookN4mpl_4int_ILi2EEEE4dumpERS0_,comdat
	.weak	_ZN15ImplSeqIteratorI4BookN4mpl_4int_ILi2EEEE4dumpERS0_
	.type	_ZN15ImplSeqIteratorI4BookN4mpl_4int_ILi2EEEE4dumpERS0_, @function
_ZN15ImplSeqIteratorI4BookN4mpl_4int_ILi2EEEE4dumpERS0_:
.LFB3837:
	.loc 3 41 21
	.cfi_startproc
	pushq	%rbp
	.cfi_def_cfa_offset 16
	.cfi_offset 6, -16
	movq	%rsp, %rbp
	.cfi_def_cfa_register 6
	subq	$16, %rsp
	movq	%rdi, -8(%rbp)
	.loc 3 42 31
	call	_ZN5boost6fusion9extension18struct_member_nameI4BookLi2EE4callEv
	movq	%rax, %rsi
	movl	$_ZSt4cout, %edi
	call	_ZStlsISt11char_traitsIcEERSt13basic_ostreamIcT_ES5_PKc
	movl	$.LC18, %esi
	movq	%rax, %rdi
	call	_ZStlsISt11char_traitsIcEERSt13basic_ostreamIcT_ES5_PKc
	.loc 3 43 51
	movq	-8(%rbp), %rax
	movq	%rax, %rdi
	call	_ZN5boost6fusion2atIN4mpl_4int_ILi2EEE4BookEENS_15lazy_disable_ifINS_8is_constIT0_EENS0_9result_of2atIS8_T_EEE4typeERS8_
	.loc 3 43 30
	movq	%rax, %rdi
	call	_ZN14VoidReflectionIPcE4dumpERS0_
	.loc 3 44 36
	movq	-8(%rbp), %rax
	movq	%rax, %rdi
	call	_ZN5boost6fusion2atIN4mpl_4int_ILi2EEE4BookEENS_15lazy_disable_ifINS_8is_constIT0_EENS0_9result_of2atIS8_T_EEE4typeERS8_
	.loc 3 44 13
	movq	(%rax), %rax
	movq	%rax, %rsi
	movl	$_ZSt4cout, %edi
	call	_ZStlsISt11char_traitsIcEERSt13basic_ostreamIcT_ES5_PKc
	.loc 3 45 21
	call	_ZN5CommaI4BookN4mpl_4int_ILi2EEEE5commaEv
	.loc 3 46 35
	movq	-8(%rbp), %rax
	movq	%rax, %rdi
	call	_ZN15ImplSeqIteratorI4BookN4mpl_4int_ILi3EEEE4dumpERS0_
	.loc 3 47 2
	nop
	leave
	.cfi_def_cfa 7, 8
	ret
	.cfi_endproc
.LFE3837:
	.size	_ZN15ImplSeqIteratorI4BookN4mpl_4int_ILi2EEEE4dumpERS0_, .-_ZN15ImplSeqIteratorI4BookN4mpl_4int_ILi2EEEE4dumpERS0_
	.section	.text._ZN13SeqReflectionI3FooE4dumpERS0_,"axG",@progbits,_ZN13SeqReflectionI3FooE4dumpERS0_,comdat
	.weak	_ZN13SeqReflectionI3FooE4dumpERS0_
	.type	_ZN13SeqReflectionI3FooE4dumpERS0_, @function
_ZN13SeqReflectionI3FooE4dumpERS0_:
.LFB3838:
	.loc 3 58 14
	.cfi_startproc
	pushq	%rbp
	.cfi_def_cfa_offset 16
	.cfi_offset 6, -16
	movq	%rsp, %rbp
	.cfi_def_cfa_register 6
	subq	$16, %rsp
	movq	%rdi, -8(%rbp)
	.loc 3 59 12
	movl	$.LC16, %esi
	movl	$_ZSt4cout, %edi
	call	_ZStlsISt11char_traitsIcEERSt13basic_ostreamIcT_ES5_PKc
	.loc 3 60 20
	movl	$1, %edi
	call	_ZN11PrettySpace4tickEb
	.loc 3 61 24
	movq	-8(%rbp), %rax
	movq	%rax, %rdi
	call	_ZN15ImplSeqIteratorI3FooN4mpl_4int_ILi0EEEE4dumpERS0_
	.loc 3 62 20
	movl	$0, %edi
	call	_ZN11PrettySpace4tickEb
	.loc 3 63 12
	movl	$.LC17, %esi
	movl	$_ZSt4cout, %edi
	call	_ZStlsISt11char_traitsIcEERSt13basic_ostreamIcT_ES5_PKc
	.loc 3 64 21
	call	_ZN11PrettySpace5printEv
	.loc 3 65 2
	nop
	leave
	.cfi_def_cfa 7, 8
	ret
	.cfi_endproc
.LFE3838:
	.size	_ZN13SeqReflectionI3FooE4dumpERS0_, .-_ZN13SeqReflectionI3FooE4dumpERS0_
	.section	.text._ZN5boost6fusion9extension6access13struct_memberI3BarLi1EE5applyIS4_E4callERS4_,"axG",@progbits,_ZN5boost6fusion9extension6access13struct_memberI3BarLi1EE5applyIS4_E4callERS4_,comdat
	.weak	_ZN5boost6fusion9extension6access13struct_memberI3BarLi1EE5applyIS4_E4callERS4_
	.type	_ZN5boost6fusion9extension6access13struct_memberI3BarLi1EE5applyIS4_E4callERS4_, @function
_ZN5boost6fusion9extension6access13struct_memberI3BarLi1EE5applyIS4_E4callERS4_:
.LFB3839:
	.loc 3 120 1005
	.cfi_startproc
	pushq	%rbp
	.cfi_def_cfa_offset 16
	.cfi_offset 6, -16
	movq	%rsp, %rbp
	.cfi_def_cfa_register 6
	movq	%rdi, -8(%rbp)
	.loc 3 120 1034
	movq	-8(%rbp), %rax
	addq	$8, %rax
	.loc 3 120 1040
	popq	%rbp
	.cfi_def_cfa 7, 8
	ret
	.cfi_endproc
.LFE3839:
	.size	_ZN5boost6fusion9extension6access13struct_memberI3BarLi1EE5applyIS4_E4callERS4_, .-_ZN5boost6fusion9extension6access13struct_memberI3BarLi1EE5applyIS4_E4callERS4_
	.section	.text._ZN5boost6fusion9extension6access13struct_memberI4BookLi1EE5applyIS4_E4callERS4_,"axG",@progbits,_ZN5boost6fusion9extension6access13struct_memberI4BookLi1EE5applyIS4_E4callERS4_,comdat
	.weak	_ZN5boost6fusion9extension6access13struct_memberI4BookLi1EE5applyIS4_E4callERS4_
	.type	_ZN5boost6fusion9extension6access13struct_memberI4BookLi1EE5applyIS4_E4callERS4_, @function
_ZN5boost6fusion9extension6access13struct_memberI4BookLi1EE5applyIS4_E4callERS4_:
.LFB3840:
	.loc 3 123 1002
	.cfi_startproc
	pushq	%rbp
	.cfi_def_cfa_offset 16
	.cfi_offset 6, -16
	movq	%rsp, %rbp
	.cfi_def_cfa_register 6
	movq	%rdi, -8(%rbp)
	.loc 3 123 1031
	movq	-8(%rbp), %rax
	addq	$8, %rax
	.loc 3 123 1037
	popq	%rbp
	.cfi_def_cfa 7, 8
	ret
	.cfi_endproc
.LFE3840:
	.size	_ZN5boost6fusion9extension6access13struct_memberI4BookLi1EE5applyIS4_E4callERS4_, .-_ZN5boost6fusion9extension6access13struct_memberI4BookLi1EE5applyIS4_E4callERS4_
	.section	.text._ZN5boost6fusion2atIN4mpl_4int_ILi2EEE4BookEENS_15lazy_disable_ifINS_8is_constIT0_EENS0_9result_of2atIS8_T_EEE4typeERS8_,"axG",@progbits,_ZN5boost6fusion2atIN4mpl_4int_ILi2EEE4BookEENS_15lazy_disable_ifINS_8is_constIT0_EENS0_9result_of2atIS8_T_EEE4typeERS8_,comdat
	.weak	_ZN5boost6fusion2atIN4mpl_4int_ILi2EEE4BookEENS_15lazy_disable_ifINS_8is_constIT0_EENS0_9result_of2atIS8_T_EEE4typeERS8_
	.type	_ZN5boost6fusion2atIN4mpl_4int_ILi2EEE4BookEENS_15lazy_disable_ifINS_8is_constIT0_EENS0_9result_of2atIS8_T_EEE4typeERS8_, @function
_ZN5boost6fusion2atIN4mpl_4int_ILi2EEE4BookEENS_15lazy_disable_ifINS_8is_constIT0_EENS0_9result_of2atIS8_T_EEE4typeERS8_:
.LFB3841:
	.loc 5 99 5
	.cfi_startproc
	pushq	%rbp
	.cfi_def_cfa_offset 16
	.cfi_offset 6, -16
	movq	%rsp, %rbp
	.cfi_def_cfa_register 6
	subq	$16, %rsp
	movq	%rdi, -8(%rbp)
	.loc 5 101 48
	movq	-8(%rbp), %rax
	movq	%rax, %rdi
	call	_ZN5boost6fusion9extension6access13struct_memberI4BookLi2EE5applyIS4_E4callERS4_
	.loc 5 102 5
	leave
	.cfi_def_cfa 7, 8
	ret
	.cfi_endproc
.LFE3841:
	.size	_ZN5boost6fusion2atIN4mpl_4int_ILi2EEE4BookEENS_15lazy_disable_ifINS_8is_constIT0_EENS0_9result_of2atIS8_T_EEE4typeERS8_, .-_ZN5boost6fusion2atIN4mpl_4int_ILi2EEE4BookEENS_15lazy_disable_ifINS_8is_constIT0_EENS0_9result_of2atIS8_T_EEE4typeERS8_
	.section	.text._ZN5CommaI4BookN4mpl_4int_ILi2EEEE5commaEv,"axG",@progbits,_ZN5CommaI4BookN4mpl_4int_ILi2EEEE5commaEv,comdat
	.weak	_ZN5CommaI4BookN4mpl_4int_ILi2EEEE5commaEv
	.type	_ZN5CommaI4BookN4mpl_4int_ILi2EEEE5commaEv, @function
_ZN5CommaI4BookN4mpl_4int_ILi2EEEE5commaEv:
.LFB3842:
	.loc 3 29 21
	.cfi_startproc
	pushq	%rbp
	.cfi_def_cfa_offset 16
	.cfi_offset 6, -16
	movq	%rsp, %rbp
	.cfi_def_cfa_register 6
	.loc 3 29 37
	movl	$.LC21, %edi
	movl	$0, %eax
	call	printf
	.loc 3 29 45
	nop
	popq	%rbp
	.cfi_def_cfa 7, 8
	ret
	.cfi_endproc
.LFE3842:
	.size	_ZN5CommaI4BookN4mpl_4int_ILi2EEEE5commaEv, .-_ZN5CommaI4BookN4mpl_4int_ILi2EEEE5commaEv
	.section	.text._ZN15ImplSeqIteratorI4BookN4mpl_4int_ILi3EEEE4dumpERS0_,"axG",@progbits,_ZN15ImplSeqIteratorI4BookN4mpl_4int_ILi3EEEE4dumpERS0_,comdat
	.weak	_ZN15ImplSeqIteratorI4BookN4mpl_4int_ILi3EEEE4dumpERS0_
	.type	_ZN15ImplSeqIteratorI4BookN4mpl_4int_ILi3EEEE4dumpERS0_, @function
_ZN15ImplSeqIteratorI4BookN4mpl_4int_ILi3EEEE4dumpERS0_:
.LFB3843:
	.loc 3 41 21
	.cfi_startproc
	pushq	%rbp
	.cfi_def_cfa_offset 16
	.cfi_offset 6, -16
	movq	%rsp, %rbp
	.cfi_def_cfa_register 6
	subq	$16, %rsp
	movq	%rdi, -8(%rbp)
	.loc 3 42 31
	call	_ZN5boost6fusion9extension18struct_member_nameI4BookLi3EE4callEv
	movq	%rax, %rsi
	movl	$_ZSt4cout, %edi
	call	_ZStlsISt11char_traitsIcEERSt13basic_ostreamIcT_ES5_PKc
	movl	$.LC18, %esi
	movq	%rax, %rdi
	call	_ZStlsISt11char_traitsIcEERSt13basic_ostreamIcT_ES5_PKc
	.loc 3 43 51
	movq	-8(%rbp), %rax
	movq	%rax, %rdi
	call	_ZN5boost6fusion2atIN4mpl_4int_ILi3EEE4BookEENS_15lazy_disable_ifINS_8is_constIT0_EENS0_9result_of2atIS8_T_EEE4typeERS8_
	.loc 3 43 30
	movq	%rax, %rdi
	call	_ZN14VoidReflectionI5GenreE4dumpERS0_
	.loc 3 44 36
	movq	-8(%rbp), %rax
	movq	%rax, %rdi
	call	_ZN5boost6fusion2atIN4mpl_4int_ILi3EEE4BookEENS_15lazy_disable_ifINS_8is_constIT0_EENS0_9result_of2atIS8_T_EEE4typeERS8_
	.loc 3 44 13
	movl	(%rax), %eax
	movl	%eax, %esi
	movl	$_ZSt4cout, %edi
	call	_ZNSolsEi
	.loc 3 45 21
	call	_ZN5CommaI4BookN4mpl_4int_ILi3EEEE5commaEv
	.loc 3 46 35
	movq	-8(%rbp), %rax
	movq	%rax, %rdi
	call	_ZN15ImplSeqIteratorI4BookN4mpl_4int_ILi4EEEE4dumpERS0_
	.loc 3 47 2
	nop
	leave
	.cfi_def_cfa 7, 8
	ret
	.cfi_endproc
.LFE3843:
	.size	_ZN15ImplSeqIteratorI4BookN4mpl_4int_ILi3EEEE4dumpERS0_, .-_ZN15ImplSeqIteratorI4BookN4mpl_4int_ILi3EEEE4dumpERS0_
	.section	.text._ZN15ImplSeqIteratorI3FooN4mpl_4int_ILi0EEEE4dumpERS0_,"axG",@progbits,_ZN15ImplSeqIteratorI3FooN4mpl_4int_ILi0EEEE4dumpERS0_,comdat
	.weak	_ZN15ImplSeqIteratorI3FooN4mpl_4int_ILi0EEEE4dumpERS0_
	.type	_ZN15ImplSeqIteratorI3FooN4mpl_4int_ILi0EEEE4dumpERS0_, @function
_ZN15ImplSeqIteratorI3FooN4mpl_4int_ILi0EEEE4dumpERS0_:
.LFB3844:
	.loc 3 41 21
	.cfi_startproc
	pushq	%rbp
	.cfi_def_cfa_offset 16
	.cfi_offset 6, -16
	movq	%rsp, %rbp
	.cfi_def_cfa_register 6
	subq	$16, %rsp
	movq	%rdi, -8(%rbp)
	.loc 3 42 31
	call	_ZN5boost6fusion9extension18struct_member_nameI3FooLi0EE4callEv
	movq	%rax, %rsi
	movl	$_ZSt4cout, %edi
	call	_ZStlsISt11char_traitsIcEERSt13basic_ostreamIcT_ES5_PKc
	movl	$.LC18, %esi
	movq	%rax, %rdi
	call	_ZStlsISt11char_traitsIcEERSt13basic_ostreamIcT_ES5_PKc
	.loc 3 43 51
	movq	-8(%rbp), %rax
	movq	%rax, %rdi
	call	_ZN5boost6fusion2atIN4mpl_4int_ILi0EEE3FooEENS_15lazy_disable_ifINS_8is_constIT0_EENS0_9result_of2atIS8_T_EEE4typeERS8_
	.loc 3 43 30
	movq	%rax, %rdi
	call	_ZN14VoidReflectionIiE4dumpERi
	.loc 3 44 36
	movq	-8(%rbp), %rax
	movq	%rax, %rdi
	call	_ZN5boost6fusion2atIN4mpl_4int_ILi0EEE3FooEENS_15lazy_disable_ifINS_8is_constIT0_EENS0_9result_of2atIS8_T_EEE4typeERS8_
	.loc 3 44 13
	movl	(%rax), %eax
	movl	%eax, %esi
	movl	$_ZSt4cout, %edi
	call	_ZNSolsEi
	.loc 3 45 21
	call	_ZN5CommaI3FooN4mpl_4int_ILi0EEEE5commaEv
	.loc 3 46 35
	movq	-8(%rbp), %rax
	movq	%rax, %rdi
	call	_ZN15ImplSeqIteratorI3FooN4mpl_4int_ILi1EEEE4dumpERS0_
	.loc 3 47 2
	nop
	leave
	.cfi_def_cfa 7, 8
	ret
	.cfi_endproc
.LFE3844:
	.size	_ZN15ImplSeqIteratorI3FooN4mpl_4int_ILi0EEEE4dumpERS0_, .-_ZN15ImplSeqIteratorI3FooN4mpl_4int_ILi0EEEE4dumpERS0_
	.section	.text._ZN5boost6fusion9extension6access13struct_memberI4BookLi2EE5applyIS4_E4callERS4_,"axG",@progbits,_ZN5boost6fusion9extension6access13struct_memberI4BookLi2EE5applyIS4_E4callERS4_,comdat
	.weak	_ZN5boost6fusion9extension6access13struct_memberI4BookLi2EE5applyIS4_E4callERS4_
	.type	_ZN5boost6fusion9extension6access13struct_memberI4BookLi2EE5applyIS4_E4callERS4_, @function
_ZN5boost6fusion9extension6access13struct_memberI4BookLi2EE5applyIS4_E4callERS4_:
.LFB3845:
	.loc 3 123 1479
	.cfi_startproc
	pushq	%rbp
	.cfi_def_cfa_offset 16
	.cfi_offset 6, -16
	movq	%rsp, %rbp
	.cfi_def_cfa_register 6
	movq	%rdi, -8(%rbp)
	.loc 3 123 1508
	movq	-8(%rbp), %rax
	addq	$16, %rax
	.loc 3 123 1516
	popq	%rbp
	.cfi_def_cfa 7, 8
	ret
	.cfi_endproc
.LFE3845:
	.size	_ZN5boost6fusion9extension6access13struct_memberI4BookLi2EE5applyIS4_E4callERS4_, .-_ZN5boost6fusion9extension6access13struct_memberI4BookLi2EE5applyIS4_E4callERS4_
	.section	.text._ZN14VoidReflectionI5GenreE4dumpERS0_,"axG",@progbits,_ZN14VoidReflectionI5GenreE4dumpERS0_,comdat
	.weak	_ZN14VoidReflectionI5GenreE4dumpERS0_
	.type	_ZN14VoidReflectionI5GenreE4dumpERS0_, @function
_ZN14VoidReflectionI5GenreE4dumpERS0_:
.LFB3846:
	.loc 3 89 14
	.cfi_startproc
	pushq	%rbp
	.cfi_def_cfa_offset 16
	.cfi_offset 6, -16
	movq	%rsp, %rbp
	.cfi_def_cfa_register 6
	subq	$32, %rsp
	movq	%rdi, -24(%rbp)
	.loc 3 90 7
	movl	$0, -12(%rbp)
	.loc 3 91 45
	movl	$_ZTI5Genre, %edi
	call	_ZNKSt9type_info4nameEv
	movq	%rax, %rdi
	leaq	-12(%rbp), %rax
	movq	%rax, %rcx
	movl	$0, %edx
	movl	$0, %esi
	call	__cxa_demangle
	movq	%rax, -8(%rbp)
	.loc 3 92 29
	movl	$.LC19, %esi
	movl	$_ZSt4cout, %edi
	call	_ZStlsISt11char_traitsIcEERSt13basic_ostreamIcT_ES5_PKc
	movq	%rax, %rdx
	movq	-8(%rbp), %rax
	movq	%rax, %rsi
	movq	%rdx, %rdi
	call	_ZStlsISt11char_traitsIcEERSt13basic_ostreamIcT_ES5_PKc
	movl	$.LC20, %esi
	movq	%rax, %rdi
	call	_ZStlsISt11char_traitsIcEERSt13basic_ostreamIcT_ES5_PKc
	.loc 3 93 21
	call	_ZN11PrettySpace5printEv
	.loc 3 94 2
	nop
	leave
	.cfi_def_cfa 7, 8
	ret
	.cfi_endproc
.LFE3846:
	.size	_ZN14VoidReflectionI5GenreE4dumpERS0_, .-_ZN14VoidReflectionI5GenreE4dumpERS0_
	.section	.text._ZN5boost6fusion2atIN4mpl_4int_ILi3EEE4BookEENS_15lazy_disable_ifINS_8is_constIT0_EENS0_9result_of2atIS8_T_EEE4typeERS8_,"axG",@progbits,_ZN5boost6fusion2atIN4mpl_4int_ILi3EEE4BookEENS_15lazy_disable_ifINS_8is_constIT0_EENS0_9result_of2atIS8_T_EEE4typeERS8_,comdat
	.weak	_ZN5boost6fusion2atIN4mpl_4int_ILi3EEE4BookEENS_15lazy_disable_ifINS_8is_constIT0_EENS0_9result_of2atIS8_T_EEE4typeERS8_
	.type	_ZN5boost6fusion2atIN4mpl_4int_ILi3EEE4BookEENS_15lazy_disable_ifINS_8is_constIT0_EENS0_9result_of2atIS8_T_EEE4typeERS8_, @function
_ZN5boost6fusion2atIN4mpl_4int_ILi3EEE4BookEENS_15lazy_disable_ifINS_8is_constIT0_EENS0_9result_of2atIS8_T_EEE4typeERS8_:
.LFB3847:
	.loc 5 99 5
	.cfi_startproc
	pushq	%rbp
	.cfi_def_cfa_offset 16
	.cfi_offset 6, -16
	movq	%rsp, %rbp
	.cfi_def_cfa_register 6
	subq	$16, %rsp
	movq	%rdi, -8(%rbp)
	.loc 5 101 48
	movq	-8(%rbp), %rax
	movq	%rax, %rdi
	call	_ZN5boost6fusion9extension6access13struct_memberI4BookLi3EE5applyIS4_E4callERS4_
	.loc 5 102 5
	leave
	.cfi_def_cfa 7, 8
	ret
	.cfi_endproc
.LFE3847:
	.size	_ZN5boost6fusion2atIN4mpl_4int_ILi3EEE4BookEENS_15lazy_disable_ifINS_8is_constIT0_EENS0_9result_of2atIS8_T_EEE4typeERS8_, .-_ZN5boost6fusion2atIN4mpl_4int_ILi3EEE4BookEENS_15lazy_disable_ifINS_8is_constIT0_EENS0_9result_of2atIS8_T_EEE4typeERS8_
	.section	.text._ZN5CommaI4BookN4mpl_4int_ILi3EEEE5commaEv,"axG",@progbits,_ZN5CommaI4BookN4mpl_4int_ILi3EEEE5commaEv,comdat
	.weak	_ZN5CommaI4BookN4mpl_4int_ILi3EEEE5commaEv
	.type	_ZN5CommaI4BookN4mpl_4int_ILi3EEEE5commaEv, @function
_ZN5CommaI4BookN4mpl_4int_ILi3EEEE5commaEv:
.LFB3848:
	.loc 3 29 21
	.cfi_startproc
	pushq	%rbp
	.cfi_def_cfa_offset 16
	.cfi_offset 6, -16
	movq	%rsp, %rbp
	.cfi_def_cfa_register 6
	.loc 3 29 37
	movl	$.LC21, %edi
	movl	$0, %eax
	call	printf
	.loc 3 29 45
	nop
	popq	%rbp
	.cfi_def_cfa 7, 8
	ret
	.cfi_endproc
.LFE3848:
	.size	_ZN5CommaI4BookN4mpl_4int_ILi3EEEE5commaEv, .-_ZN5CommaI4BookN4mpl_4int_ILi3EEEE5commaEv
	.section	.text._ZN15ImplSeqIteratorI4BookN4mpl_4int_ILi4EEEE4dumpERS0_,"axG",@progbits,_ZN15ImplSeqIteratorI4BookN4mpl_4int_ILi4EEEE4dumpERS0_,comdat
	.weak	_ZN15ImplSeqIteratorI4BookN4mpl_4int_ILi4EEEE4dumpERS0_
	.type	_ZN15ImplSeqIteratorI4BookN4mpl_4int_ILi4EEEE4dumpERS0_, @function
_ZN15ImplSeqIteratorI4BookN4mpl_4int_ILi4EEEE4dumpERS0_:
.LFB3849:
	.loc 3 41 21
	.cfi_startproc
	pushq	%rbp
	.cfi_def_cfa_offset 16
	.cfi_offset 6, -16
	movq	%rsp, %rbp
	.cfi_def_cfa_register 6
	subq	$16, %rsp
	movq	%rdi, -8(%rbp)
	.loc 3 42 31
	call	_ZN5boost6fusion9extension18struct_member_nameI4BookLi4EE4callEv
	movq	%rax, %rsi
	movl	$_ZSt4cout, %edi
	call	_ZStlsISt11char_traitsIcEERSt13basic_ostreamIcT_ES5_PKc
	movl	$.LC18, %esi
	movq	%rax, %rdi
	call	_ZStlsISt11char_traitsIcEERSt13basic_ostreamIcT_ES5_PKc
	.loc 3 43 51
	movq	-8(%rbp), %rax
	movq	%rax, %rdi
	call	_ZN5boost6fusion2atIN4mpl_4int_ILi4EEE4BookEENS_15lazy_disable_ifINS_8is_constIT0_EENS0_9result_of2atIS8_T_EEE4typeERS8_
	.loc 3 43 30
	movq	%rax, %rdi
	call	_ZN14VoidReflectionIiE4dumpERi
	.loc 3 44 36
	movq	-8(%rbp), %rax
	movq	%rax, %rdi
	call	_ZN5boost6fusion2atIN4mpl_4int_ILi4EEE4BookEENS_15lazy_disable_ifINS_8is_constIT0_EENS0_9result_of2atIS8_T_EEE4typeERS8_
	.loc 3 44 13
	movl	(%rax), %eax
	movl	%eax, %esi
	movl	$_ZSt4cout, %edi
	call	_ZNSolsEi
	.loc 3 45 21
	call	_ZN5CommaI4BookN4mpl_4int_ILi4EEEE5commaEv
	.loc 3 46 35
	movq	-8(%rbp), %rax
	movq	%rax, %rdi
	call	_ZN15ImplSeqIteratorI4BookN4mpl_4int_ILi5EEEE4dumpERS0_
	.loc 3 47 2
	nop
	leave
	.cfi_def_cfa 7, 8
	ret
	.cfi_endproc
.LFE3849:
	.size	_ZN15ImplSeqIteratorI4BookN4mpl_4int_ILi4EEEE4dumpERS0_, .-_ZN15ImplSeqIteratorI4BookN4mpl_4int_ILi4EEEE4dumpERS0_
	.section	.text._ZN5boost6fusion2atIN4mpl_4int_ILi0EEE3FooEENS_15lazy_disable_ifINS_8is_constIT0_EENS0_9result_of2atIS8_T_EEE4typeERS8_,"axG",@progbits,_ZN5boost6fusion2atIN4mpl_4int_ILi0EEE3FooEENS_15lazy_disable_ifINS_8is_constIT0_EENS0_9result_of2atIS8_T_EEE4typeERS8_,comdat
	.weak	_ZN5boost6fusion2atIN4mpl_4int_ILi0EEE3FooEENS_15lazy_disable_ifINS_8is_constIT0_EENS0_9result_of2atIS8_T_EEE4typeERS8_
	.type	_ZN5boost6fusion2atIN4mpl_4int_ILi0EEE3FooEENS_15lazy_disable_ifINS_8is_constIT0_EENS0_9result_of2atIS8_T_EEE4typeERS8_, @function
_ZN5boost6fusion2atIN4mpl_4int_ILi0EEE3FooEENS_15lazy_disable_ifINS_8is_constIT0_EENS0_9result_of2atIS8_T_EEE4typeERS8_:
.LFB3850:
	.loc 5 99 5
	.cfi_startproc
	pushq	%rbp
	.cfi_def_cfa_offset 16
	.cfi_offset 6, -16
	movq	%rsp, %rbp
	.cfi_def_cfa_register 6
	subq	$16, %rsp
	movq	%rdi, -8(%rbp)
	.loc 5 101 48
	movq	-8(%rbp), %rax
	movq	%rax, %rdi
	call	_ZN5boost6fusion9extension6access13struct_memberI3FooLi0EE5applyIS4_E4callERS4_
	.loc 5 102 5
	leave
	.cfi_def_cfa 7, 8
	ret
	.cfi_endproc
.LFE3850:
	.size	_ZN5boost6fusion2atIN4mpl_4int_ILi0EEE3FooEENS_15lazy_disable_ifINS_8is_constIT0_EENS0_9result_of2atIS8_T_EEE4typeERS8_, .-_ZN5boost6fusion2atIN4mpl_4int_ILi0EEE3FooEENS_15lazy_disable_ifINS_8is_constIT0_EENS0_9result_of2atIS8_T_EEE4typeERS8_
	.section	.text._ZN5CommaI3FooN4mpl_4int_ILi0EEEE5commaEv,"axG",@progbits,_ZN5CommaI3FooN4mpl_4int_ILi0EEEE5commaEv,comdat
	.weak	_ZN5CommaI3FooN4mpl_4int_ILi0EEEE5commaEv
	.type	_ZN5CommaI3FooN4mpl_4int_ILi0EEEE5commaEv, @function
_ZN5CommaI3FooN4mpl_4int_ILi0EEEE5commaEv:
.LFB3851:
	.loc 3 29 21
	.cfi_startproc
	pushq	%rbp
	.cfi_def_cfa_offset 16
	.cfi_offset 6, -16
	movq	%rsp, %rbp
	.cfi_def_cfa_register 6
	.loc 3 29 37
	movl	$.LC21, %edi
	movl	$0, %eax
	call	printf
	.loc 3 29 45
	nop
	popq	%rbp
	.cfi_def_cfa 7, 8
	ret
	.cfi_endproc
.LFE3851:
	.size	_ZN5CommaI3FooN4mpl_4int_ILi0EEEE5commaEv, .-_ZN5CommaI3FooN4mpl_4int_ILi0EEEE5commaEv
	.section	.text._ZN15ImplSeqIteratorI3FooN4mpl_4int_ILi1EEEE4dumpERS0_,"axG",@progbits,_ZN15ImplSeqIteratorI3FooN4mpl_4int_ILi1EEEE4dumpERS0_,comdat
	.weak	_ZN15ImplSeqIteratorI3FooN4mpl_4int_ILi1EEEE4dumpERS0_
	.type	_ZN15ImplSeqIteratorI3FooN4mpl_4int_ILi1EEEE4dumpERS0_, @function
_ZN15ImplSeqIteratorI3FooN4mpl_4int_ILi1EEEE4dumpERS0_:
.LFB3852:
	.loc 3 41 21
	.cfi_startproc
	pushq	%rbp
	.cfi_def_cfa_offset 16
	.cfi_offset 6, -16
	movq	%rsp, %rbp
	.cfi_def_cfa_register 6
	subq	$16, %rsp
	movq	%rdi, -8(%rbp)
	.loc 3 42 31
	call	_ZN5boost6fusion9extension18struct_member_nameI3FooLi1EE4callEv
	movq	%rax, %rsi
	movl	$_ZSt4cout, %edi
	call	_ZStlsISt11char_traitsIcEERSt13basic_ostreamIcT_ES5_PKc
	movl	$.LC18, %esi
	movq	%rax, %rdi
	call	_ZStlsISt11char_traitsIcEERSt13basic_ostreamIcT_ES5_PKc
	.loc 3 43 51
	movq	-8(%rbp), %rax
	movq	%rax, %rdi
	call	_ZN5boost6fusion2atIN4mpl_4int_ILi1EEE3FooEENS_15lazy_disable_ifINS_8is_constIT0_EENS0_9result_of2atIS8_T_EEE4typeERS8_
	.loc 3 43 30
	movq	%rax, %rdi
	call	_ZN14VoidReflectionIPcE4dumpERS0_
	.loc 3 44 36
	movq	-8(%rbp), %rax
	movq	%rax, %rdi
	call	_ZN5boost6fusion2atIN4mpl_4int_ILi1EEE3FooEENS_15lazy_disable_ifINS_8is_constIT0_EENS0_9result_of2atIS8_T_EEE4typeERS8_
	.loc 3 44 13
	movq	(%rax), %rax
	movq	%rax, %rsi
	movl	$_ZSt4cout, %edi
	call	_ZStlsISt11char_traitsIcEERSt13basic_ostreamIcT_ES5_PKc
	.loc 3 45 21
	call	_ZN5CommaI3FooN4mpl_4int_ILi1EEEE5commaEv
	.loc 3 46 35
	movq	-8(%rbp), %rax
	movq	%rax, %rdi
	call	_ZN15ImplSeqIteratorI3FooN4mpl_4int_ILi2EEEE4dumpERS0_
	.loc 3 47 2
	nop
	leave
	.cfi_def_cfa 7, 8
	ret
	.cfi_endproc
.LFE3852:
	.size	_ZN15ImplSeqIteratorI3FooN4mpl_4int_ILi1EEEE4dumpERS0_, .-_ZN15ImplSeqIteratorI3FooN4mpl_4int_ILi1EEEE4dumpERS0_
	.section	.text._ZN5boost6fusion9extension6access13struct_memberI4BookLi3EE5applyIS4_E4callERS4_,"axG",@progbits,_ZN5boost6fusion9extension6access13struct_memberI4BookLi3EE5applyIS4_E4callERS4_,comdat
	.weak	_ZN5boost6fusion9extension6access13struct_memberI4BookLi3EE5applyIS4_E4callERS4_
	.type	_ZN5boost6fusion9extension6access13struct_memberI4BookLi3EE5applyIS4_E4callERS4_, @function
_ZN5boost6fusion9extension6access13struct_memberI4BookLi3EE5applyIS4_E4callERS4_:
.LFB3853:
	.loc 3 123 1960
	.cfi_startproc
	pushq	%rbp
	.cfi_def_cfa_offset 16
	.cfi_offset 6, -16
	movq	%rsp, %rbp
	.cfi_def_cfa_register 6
	movq	%rdi, -8(%rbp)
	.loc 3 123 1989
	movq	-8(%rbp), %rax
	addq	$24, %rax
	.loc 3 123 1995
	popq	%rbp
	.cfi_def_cfa 7, 8
	ret
	.cfi_endproc
.LFE3853:
	.size	_ZN5boost6fusion9extension6access13struct_memberI4BookLi3EE5applyIS4_E4callERS4_, .-_ZN5boost6fusion9extension6access13struct_memberI4BookLi3EE5applyIS4_E4callERS4_
	.section	.text._ZN5boost6fusion2atIN4mpl_4int_ILi4EEE4BookEENS_15lazy_disable_ifINS_8is_constIT0_EENS0_9result_of2atIS8_T_EEE4typeERS8_,"axG",@progbits,_ZN5boost6fusion2atIN4mpl_4int_ILi4EEE4BookEENS_15lazy_disable_ifINS_8is_constIT0_EENS0_9result_of2atIS8_T_EEE4typeERS8_,comdat
	.weak	_ZN5boost6fusion2atIN4mpl_4int_ILi4EEE4BookEENS_15lazy_disable_ifINS_8is_constIT0_EENS0_9result_of2atIS8_T_EEE4typeERS8_
	.type	_ZN5boost6fusion2atIN4mpl_4int_ILi4EEE4BookEENS_15lazy_disable_ifINS_8is_constIT0_EENS0_9result_of2atIS8_T_EEE4typeERS8_, @function
_ZN5boost6fusion2atIN4mpl_4int_ILi4EEE4BookEENS_15lazy_disable_ifINS_8is_constIT0_EENS0_9result_of2atIS8_T_EEE4typeERS8_:
.LFB3854:
	.loc 5 99 5
	.cfi_startproc
	pushq	%rbp
	.cfi_def_cfa_offset 16
	.cfi_offset 6, -16
	movq	%rsp, %rbp
	.cfi_def_cfa_register 6
	subq	$16, %rsp
	movq	%rdi, -8(%rbp)
	.loc 5 101 48
	movq	-8(%rbp), %rax
	movq	%rax, %rdi
	call	_ZN5boost6fusion9extension6access13struct_memberI4BookLi4EE5applyIS4_E4callERS4_
	.loc 5 102 5
	leave
	.cfi_def_cfa 7, 8
	ret
	.cfi_endproc
.LFE3854:
	.size	_ZN5boost6fusion2atIN4mpl_4int_ILi4EEE4BookEENS_15lazy_disable_ifINS_8is_constIT0_EENS0_9result_of2atIS8_T_EEE4typeERS8_, .-_ZN5boost6fusion2atIN4mpl_4int_ILi4EEE4BookEENS_15lazy_disable_ifINS_8is_constIT0_EENS0_9result_of2atIS8_T_EEE4typeERS8_
	.section	.text._ZN5CommaI4BookN4mpl_4int_ILi4EEEE5commaEv,"axG",@progbits,_ZN5CommaI4BookN4mpl_4int_ILi4EEEE5commaEv,comdat
	.weak	_ZN5CommaI4BookN4mpl_4int_ILi4EEEE5commaEv
	.type	_ZN5CommaI4BookN4mpl_4int_ILi4EEEE5commaEv, @function
_ZN5CommaI4BookN4mpl_4int_ILi4EEEE5commaEv:
.LFB3855:
	.loc 3 29 21
	.cfi_startproc
	pushq	%rbp
	.cfi_def_cfa_offset 16
	.cfi_offset 6, -16
	movq	%rsp, %rbp
	.cfi_def_cfa_register 6
	.loc 3 29 37
	movl	$.LC21, %edi
	movl	$0, %eax
	call	printf
	.loc 3 29 45
	nop
	popq	%rbp
	.cfi_def_cfa 7, 8
	ret
	.cfi_endproc
.LFE3855:
	.size	_ZN5CommaI4BookN4mpl_4int_ILi4EEEE5commaEv, .-_ZN5CommaI4BookN4mpl_4int_ILi4EEEE5commaEv
	.section	.text._ZN15ImplSeqIteratorI4BookN4mpl_4int_ILi5EEEE4dumpERS0_,"axG",@progbits,_ZN15ImplSeqIteratorI4BookN4mpl_4int_ILi5EEEE4dumpERS0_,comdat
	.weak	_ZN15ImplSeqIteratorI4BookN4mpl_4int_ILi5EEEE4dumpERS0_
	.type	_ZN15ImplSeqIteratorI4BookN4mpl_4int_ILi5EEEE4dumpERS0_, @function
_ZN15ImplSeqIteratorI4BookN4mpl_4int_ILi5EEEE4dumpERS0_:
.LFB3856:
	.loc 3 41 21
	.cfi_startproc
	pushq	%rbp
	.cfi_def_cfa_offset 16
	.cfi_offset 6, -16
	movq	%rsp, %rbp
	.cfi_def_cfa_register 6
	subq	$16, %rsp
	movq	%rdi, -8(%rbp)
	.loc 3 42 31
	call	_ZN5boost6fusion9extension18struct_member_nameI4BookLi5EE4callEv
	movq	%rax, %rsi
	movl	$_ZSt4cout, %edi
	call	_ZStlsISt11char_traitsIcEERSt13basic_ostreamIcT_ES5_PKc
	movl	$.LC18, %esi
	movq	%rax, %rdi
	call	_ZStlsISt11char_traitsIcEERSt13basic_ostreamIcT_ES5_PKc
	.loc 3 43 51
	movq	-8(%rbp), %rax
	movq	%rax, %rdi
	call	_ZN5boost6fusion2atIN4mpl_4int_ILi5EEE4BookEENS_15lazy_disable_ifINS_8is_constIT0_EENS0_9result_of2atIS8_T_EEE4typeERS8_
	.loc 3 43 30
	movq	%rax, %rdi
	call	_ZN14VoidReflectionIfE4dumpERf
	.loc 3 44 36
	movq	-8(%rbp), %rax
	movq	%rax, %rdi
	call	_ZN5boost6fusion2atIN4mpl_4int_ILi5EEE4BookEENS_15lazy_disable_ifINS_8is_constIT0_EENS0_9result_of2atIS8_T_EEE4typeERS8_
	.loc 3 44 13
	movss	(%rax), %xmm0
	movl	$_ZSt4cout, %edi
	call	_ZNSolsEf
	.loc 3 45 21
	call	_ZN5CommaI4BookN4mpl_4int_ILi5EEEE5commaEv
	.loc 3 46 35
	movq	-8(%rbp), %rax
	movq	%rax, %rdi
	call	_ZN15ImplSeqIteratorI4BookN4mpl_4int_ILi6EEEE4dumpERS0_
	.loc 3 47 2
	nop
	leave
	.cfi_def_cfa 7, 8
	ret
	.cfi_endproc
.LFE3856:
	.size	_ZN15ImplSeqIteratorI4BookN4mpl_4int_ILi5EEEE4dumpERS0_, .-_ZN15ImplSeqIteratorI4BookN4mpl_4int_ILi5EEEE4dumpERS0_
	.section	.text._ZN5boost6fusion9extension6access13struct_memberI3FooLi0EE5applyIS4_E4callERS4_,"axG",@progbits,_ZN5boost6fusion9extension6access13struct_memberI3FooLi0EE5applyIS4_E4callERS4_,comdat
	.weak	_ZN5boost6fusion9extension6access13struct_memberI3FooLi0EE5applyIS4_E4callERS4_
	.type	_ZN5boost6fusion9extension6access13struct_memberI3FooLi0EE5applyIS4_E4callERS4_, @function
_ZN5boost6fusion9extension6access13struct_memberI3FooLi0EE5applyIS4_E4callERS4_:
.LFB3857:
	.loc 3 113 522
	.cfi_startproc
	pushq	%rbp
	.cfi_def_cfa_offset 16
	.cfi_offset 6, -16
	movq	%rsp, %rbp
	.cfi_def_cfa_register 6
	movq	%rdi, -8(%rbp)
	.loc 3 113 551
	movq	-8(%rbp), %rax
	.loc 3 113 557
	popq	%rbp
	.cfi_def_cfa 7, 8
	ret
	.cfi_endproc
.LFE3857:
	.size	_ZN5boost6fusion9extension6access13struct_memberI3FooLi0EE5applyIS4_E4callERS4_, .-_ZN5boost6fusion9extension6access13struct_memberI3FooLi0EE5applyIS4_E4callERS4_
	.section	.text._ZN5boost6fusion2atIN4mpl_4int_ILi1EEE3FooEENS_15lazy_disable_ifINS_8is_constIT0_EENS0_9result_of2atIS8_T_EEE4typeERS8_,"axG",@progbits,_ZN5boost6fusion2atIN4mpl_4int_ILi1EEE3FooEENS_15lazy_disable_ifINS_8is_constIT0_EENS0_9result_of2atIS8_T_EEE4typeERS8_,comdat
	.weak	_ZN5boost6fusion2atIN4mpl_4int_ILi1EEE3FooEENS_15lazy_disable_ifINS_8is_constIT0_EENS0_9result_of2atIS8_T_EEE4typeERS8_
	.type	_ZN5boost6fusion2atIN4mpl_4int_ILi1EEE3FooEENS_15lazy_disable_ifINS_8is_constIT0_EENS0_9result_of2atIS8_T_EEE4typeERS8_, @function
_ZN5boost6fusion2atIN4mpl_4int_ILi1EEE3FooEENS_15lazy_disable_ifINS_8is_constIT0_EENS0_9result_of2atIS8_T_EEE4typeERS8_:
.LFB3858:
	.loc 5 99 5
	.cfi_startproc
	pushq	%rbp
	.cfi_def_cfa_offset 16
	.cfi_offset 6, -16
	movq	%rsp, %rbp
	.cfi_def_cfa_register 6
	subq	$16, %rsp
	movq	%rdi, -8(%rbp)
	.loc 5 101 48
	movq	-8(%rbp), %rax
	movq	%rax, %rdi
	call	_ZN5boost6fusion9extension6access13struct_memberI3FooLi1EE5applyIS4_E4callERS4_
	.loc 5 102 5
	leave
	.cfi_def_cfa 7, 8
	ret
	.cfi_endproc
.LFE3858:
	.size	_ZN5boost6fusion2atIN4mpl_4int_ILi1EEE3FooEENS_15lazy_disable_ifINS_8is_constIT0_EENS0_9result_of2atIS8_T_EEE4typeERS8_, .-_ZN5boost6fusion2atIN4mpl_4int_ILi1EEE3FooEENS_15lazy_disable_ifINS_8is_constIT0_EENS0_9result_of2atIS8_T_EEE4typeERS8_
	.section	.text._ZN5CommaI3FooN4mpl_4int_ILi1EEEE5commaEv,"axG",@progbits,_ZN5CommaI3FooN4mpl_4int_ILi1EEEE5commaEv,comdat
	.weak	_ZN5CommaI3FooN4mpl_4int_ILi1EEEE5commaEv
	.type	_ZN5CommaI3FooN4mpl_4int_ILi1EEEE5commaEv, @function
_ZN5CommaI3FooN4mpl_4int_ILi1EEEE5commaEv:
.LFB3859:
	.loc 3 34 21
	.cfi_startproc
	pushq	%rbp
	.cfi_def_cfa_offset 16
	.cfi_offset 6, -16
	movq	%rsp, %rbp
	.cfi_def_cfa_register 6
	.loc 3 34 30
	nop
	popq	%rbp
	.cfi_def_cfa 7, 8
	ret
	.cfi_endproc
.LFE3859:
	.size	_ZN5CommaI3FooN4mpl_4int_ILi1EEEE5commaEv, .-_ZN5CommaI3FooN4mpl_4int_ILi1EEEE5commaEv
	.section	.text._ZN15ImplSeqIteratorI3FooN4mpl_4int_ILi2EEEE4dumpERS0_,"axG",@progbits,_ZN15ImplSeqIteratorI3FooN4mpl_4int_ILi2EEEE4dumpERS0_,comdat
	.weak	_ZN15ImplSeqIteratorI3FooN4mpl_4int_ILi2EEEE4dumpERS0_
	.type	_ZN15ImplSeqIteratorI3FooN4mpl_4int_ILi2EEEE4dumpERS0_, @function
_ZN15ImplSeqIteratorI3FooN4mpl_4int_ILi2EEEE4dumpERS0_:
.LFB3860:
	.loc 3 51 21
	.cfi_startproc
	pushq	%rbp
	.cfi_def_cfa_offset 16
	.cfi_offset 6, -16
	movq	%rsp, %rbp
	.cfi_def_cfa_register 6
	movq	%rdi, -8(%rbp)
	.loc 3 51 34
	nop
	popq	%rbp
	.cfi_def_cfa 7, 8
	ret
	.cfi_endproc
.LFE3860:
	.size	_ZN15ImplSeqIteratorI3FooN4mpl_4int_ILi2EEEE4dumpERS0_, .-_ZN15ImplSeqIteratorI3FooN4mpl_4int_ILi2EEEE4dumpERS0_
	.section	.text._ZN5boost6fusion9extension6access13struct_memberI4BookLi4EE5applyIS4_E4callERS4_,"axG",@progbits,_ZN5boost6fusion9extension6access13struct_memberI4BookLi4EE5applyIS4_E4callERS4_,comdat
	.weak	_ZN5boost6fusion9extension6access13struct_memberI4BookLi4EE5applyIS4_E4callERS4_
	.type	_ZN5boost6fusion9extension6access13struct_memberI4BookLi4EE5applyIS4_E4callERS4_, @function
_ZN5boost6fusion9extension6access13struct_memberI4BookLi4EE5applyIS4_E4callERS4_:
.LFB3861:
	.loc 3 123 2435
	.cfi_startproc
	pushq	%rbp
	.cfi_def_cfa_offset 16
	.cfi_offset 6, -16
	movq	%rsp, %rbp
	.cfi_def_cfa_register 6
	movq	%rdi, -8(%rbp)
	.loc 3 123 2464
	movq	-8(%rbp), %rax
	addq	$28, %rax
	.loc 3 123 2470
	popq	%rbp
	.cfi_def_cfa 7, 8
	ret
	.cfi_endproc
.LFE3861:
	.size	_ZN5boost6fusion9extension6access13struct_memberI4BookLi4EE5applyIS4_E4callERS4_, .-_ZN5boost6fusion9extension6access13struct_memberI4BookLi4EE5applyIS4_E4callERS4_
	.section	.text._ZN14VoidReflectionIfE4dumpERf,"axG",@progbits,_ZN14VoidReflectionIfE4dumpERf,comdat
	.weak	_ZN14VoidReflectionIfE4dumpERf
	.type	_ZN14VoidReflectionIfE4dumpERf, @function
_ZN14VoidReflectionIfE4dumpERf:
.LFB3862:
	.loc 3 89 14
	.cfi_startproc
	pushq	%rbp
	.cfi_def_cfa_offset 16
	.cfi_offset 6, -16
	movq	%rsp, %rbp
	.cfi_def_cfa_register 6
	subq	$32, %rsp
	movq	%rdi, -24(%rbp)
	.loc 3 90 7
	movl	$0, -12(%rbp)
	.loc 3 91 45
	movl	$_ZTIf, %edi
	call	_ZNKSt9type_info4nameEv
	movq	%rax, %rdi
	leaq	-12(%rbp), %rax
	movq	%rax, %rcx
	movl	$0, %edx
	movl	$0, %esi
	call	__cxa_demangle
	movq	%rax, -8(%rbp)
	.loc 3 92 29
	movl	$.LC19, %esi
	movl	$_ZSt4cout, %edi
	call	_ZStlsISt11char_traitsIcEERSt13basic_ostreamIcT_ES5_PKc
	movq	%rax, %rdx
	movq	-8(%rbp), %rax
	movq	%rax, %rsi
	movq	%rdx, %rdi
	call	_ZStlsISt11char_traitsIcEERSt13basic_ostreamIcT_ES5_PKc
	movl	$.LC20, %esi
	movq	%rax, %rdi
	call	_ZStlsISt11char_traitsIcEERSt13basic_ostreamIcT_ES5_PKc
	.loc 3 93 21
	call	_ZN11PrettySpace5printEv
	.loc 3 94 2
	nop
	leave
	.cfi_def_cfa 7, 8
	ret
	.cfi_endproc
.LFE3862:
	.size	_ZN14VoidReflectionIfE4dumpERf, .-_ZN14VoidReflectionIfE4dumpERf
	.section	.text._ZN5boost6fusion2atIN4mpl_4int_ILi5EEE4BookEENS_15lazy_disable_ifINS_8is_constIT0_EENS0_9result_of2atIS8_T_EEE4typeERS8_,"axG",@progbits,_ZN5boost6fusion2atIN4mpl_4int_ILi5EEE4BookEENS_15lazy_disable_ifINS_8is_constIT0_EENS0_9result_of2atIS8_T_EEE4typeERS8_,comdat
	.weak	_ZN5boost6fusion2atIN4mpl_4int_ILi5EEE4BookEENS_15lazy_disable_ifINS_8is_constIT0_EENS0_9result_of2atIS8_T_EEE4typeERS8_
	.type	_ZN5boost6fusion2atIN4mpl_4int_ILi5EEE4BookEENS_15lazy_disable_ifINS_8is_constIT0_EENS0_9result_of2atIS8_T_EEE4typeERS8_, @function
_ZN5boost6fusion2atIN4mpl_4int_ILi5EEE4BookEENS_15lazy_disable_ifINS_8is_constIT0_EENS0_9result_of2atIS8_T_EEE4typeERS8_:
.LFB3863:
	.loc 5 99 5
	.cfi_startproc
	pushq	%rbp
	.cfi_def_cfa_offset 16
	.cfi_offset 6, -16
	movq	%rsp, %rbp
	.cfi_def_cfa_register 6
	subq	$16, %rsp
	movq	%rdi, -8(%rbp)
	.loc 5 101 48
	movq	-8(%rbp), %rax
	movq	%rax, %rdi
	call	_ZN5boost6fusion9extension6access13struct_memberI4BookLi5EE5applyIS4_E4callERS4_
	.loc 5 102 5
	leave
	.cfi_def_cfa 7, 8
	ret
	.cfi_endproc
.LFE3863:
	.size	_ZN5boost6fusion2atIN4mpl_4int_ILi5EEE4BookEENS_15lazy_disable_ifINS_8is_constIT0_EENS0_9result_of2atIS8_T_EEE4typeERS8_, .-_ZN5boost6fusion2atIN4mpl_4int_ILi5EEE4BookEENS_15lazy_disable_ifINS_8is_constIT0_EENS0_9result_of2atIS8_T_EEE4typeERS8_
	.section	.text._ZN5CommaI4BookN4mpl_4int_ILi5EEEE5commaEv,"axG",@progbits,_ZN5CommaI4BookN4mpl_4int_ILi5EEEE5commaEv,comdat
	.weak	_ZN5CommaI4BookN4mpl_4int_ILi5EEEE5commaEv
	.type	_ZN5CommaI4BookN4mpl_4int_ILi5EEEE5commaEv, @function
_ZN5CommaI4BookN4mpl_4int_ILi5EEEE5commaEv:
.LFB3865:
	.loc 3 34 21
	.cfi_startproc
	pushq	%rbp
	.cfi_def_cfa_offset 16
	.cfi_offset 6, -16
	movq	%rsp, %rbp
	.cfi_def_cfa_register 6
	.loc 3 34 30
	nop
	popq	%rbp
	.cfi_def_cfa 7, 8
	ret
	.cfi_endproc
.LFE3865:
	.size	_ZN5CommaI4BookN4mpl_4int_ILi5EEEE5commaEv, .-_ZN5CommaI4BookN4mpl_4int_ILi5EEEE5commaEv
	.section	.text._ZN15ImplSeqIteratorI4BookN4mpl_4int_ILi6EEEE4dumpERS0_,"axG",@progbits,_ZN15ImplSeqIteratorI4BookN4mpl_4int_ILi6EEEE4dumpERS0_,comdat
	.weak	_ZN15ImplSeqIteratorI4BookN4mpl_4int_ILi6EEEE4dumpERS0_
	.type	_ZN15ImplSeqIteratorI4BookN4mpl_4int_ILi6EEEE4dumpERS0_, @function
_ZN15ImplSeqIteratorI4BookN4mpl_4int_ILi6EEEE4dumpERS0_:
.LFB3866:
	.loc 3 51 21
	.cfi_startproc
	pushq	%rbp
	.cfi_def_cfa_offset 16
	.cfi_offset 6, -16
	movq	%rsp, %rbp
	.cfi_def_cfa_register 6
	movq	%rdi, -8(%rbp)
	.loc 3 51 34
	nop
	popq	%rbp
	.cfi_def_cfa 7, 8
	ret
	.cfi_endproc
.LFE3866:
	.size	_ZN15ImplSeqIteratorI4BookN4mpl_4int_ILi6EEEE4dumpERS0_, .-_ZN15ImplSeqIteratorI4BookN4mpl_4int_ILi6EEEE4dumpERS0_
	.section	.text._ZN5boost6fusion9extension6access13struct_memberI3FooLi1EE5applyIS4_E4callERS4_,"axG",@progbits,_ZN5boost6fusion9extension6access13struct_memberI3FooLi1EE5applyIS4_E4callERS4_,comdat
	.weak	_ZN5boost6fusion9extension6access13struct_memberI3FooLi1EE5applyIS4_E4callERS4_
	.type	_ZN5boost6fusion9extension6access13struct_memberI3FooLi1EE5applyIS4_E4callERS4_, @function
_ZN5boost6fusion9extension6access13struct_memberI3FooLi1EE5applyIS4_E4callERS4_:
.LFB3867:
	.loc 3 113 997
	.cfi_startproc
	pushq	%rbp
	.cfi_def_cfa_offset 16
	.cfi_offset 6, -16
	movq	%rsp, %rbp
	.cfi_def_cfa_register 6
	movq	%rdi, -8(%rbp)
	.loc 3 113 1026
	movq	-8(%rbp), %rax
	addq	$8, %rax
	.loc 3 113 1032
	popq	%rbp
	.cfi_def_cfa 7, 8
	ret
	.cfi_endproc
.LFE3867:
	.size	_ZN5boost6fusion9extension6access13struct_memberI3FooLi1EE5applyIS4_E4callERS4_, .-_ZN5boost6fusion9extension6access13struct_memberI3FooLi1EE5applyIS4_E4callERS4_
	.section	.text._ZN5boost6fusion9extension6access13struct_memberI4BookLi5EE5applyIS4_E4callERS4_,"axG",@progbits,_ZN5boost6fusion9extension6access13struct_memberI4BookLi5EE5applyIS4_E4callERS4_,comdat
	.weak	_ZN5boost6fusion9extension6access13struct_memberI4BookLi5EE5applyIS4_E4callERS4_
	.type	_ZN5boost6fusion9extension6access13struct_memberI4BookLi5EE5applyIS4_E4callERS4_, @function
_ZN5boost6fusion9extension6access13struct_memberI4BookLi5EE5applyIS4_E4callERS4_:
.LFB3868:
	.loc 3 123 2912
	.cfi_startproc
	pushq	%rbp
	.cfi_def_cfa_offset 16
	.cfi_offset 6, -16
	movq	%rsp, %rbp
	.cfi_def_cfa_register 6
	movq	%rdi, -8(%rbp)
	.loc 3 123 2941
	movq	-8(%rbp), %rax
	addq	$32, %rax
	.loc 3 123 2948
	popq	%rbp
	.cfi_def_cfa 7, 8
	ret
	.cfi_endproc
.LFE3868:
	.size	_ZN5boost6fusion9extension6access13struct_memberI4BookLi5EE5applyIS4_E4callERS4_, .-_ZN5boost6fusion9extension6access13struct_memberI4BookLi5EE5applyIS4_E4callERS4_
	.weak	_ZTI5Genre
	.section	.rodata._ZTI5Genre,"aG",@progbits,_ZTI5Genre,comdat
	.align 8
	.type	_ZTI5Genre, @object
	.size	_ZTI5Genre, 16
_ZTI5Genre:
	.quad	_ZTVN10__cxxabiv116__enum_type_infoE+16
	.quad	_ZTS5Genre
	.weak	_ZTS5Genre
	.section	.rodata._ZTS5Genre,"aG",@progbits,_ZTS5Genre,comdat
	.type	_ZTS5Genre, @object
	.size	_ZTS5Genre, 7
_ZTS5Genre:
	.string	"5Genre"
	.text
	.type	_Z41__static_initialization_and_destruction_0ii, @function
_Z41__static_initialization_and_destruction_0ii:
.LFB3877:
	.loc 3 132 1
	.cfi_startproc
	pushq	%rbp
	.cfi_def_cfa_offset 16
	.cfi_offset 6, -16
	movq	%rsp, %rbp
	.cfi_def_cfa_register 6
	subq	$16, %rsp
	movl	%edi, -4(%rbp)
	movl	%esi, -8(%rbp)
	.loc 3 132 1
	cmpl	$1, -4(%rbp)
	jne	.L113
	.loc 3 132 1 is_stmt 0 discriminator 1
	cmpl	$65535, -8(%rbp)
	jne	.L113
	.loc 2 51 41 is_stmt 1
	movl	$_ZN5boost6fusionL6unusedE, %edi
	call	_ZN5boost6fusion11unused_typeC1Ev
	.file 6 "/usr/include/c++/8/iostream"
	.loc 6 74 25
	movl	$_ZStL8__ioinit, %edi
	call	_ZNSt8ios_base4InitC1Ev
	movl	$__dso_handle, %edx
	movl	$_ZStL8__ioinit, %esi
	movl	$_ZNSt8ios_base4InitD1Ev, %edi
	call	__cxa_atexit
.L113:
	.loc 3 132 1
	nop
	leave
	.cfi_def_cfa 7, 8
	ret
	.cfi_endproc
.LFE3877:
	.size	_Z41__static_initialization_and_destruction_0ii, .-_Z41__static_initialization_and_destruction_0ii
	.type	_GLOBAL__sub_I_level_counter, @function
_GLOBAL__sub_I_level_counter:
.LFB3878:
	.loc 3 132 1
	.cfi_startproc
	pushq	%rbp
	.cfi_def_cfa_offset 16
	.cfi_offset 6, -16
	movq	%rsp, %rbp
	.cfi_def_cfa_register 6
	.loc 3 132 1
	movl	$65535, %esi
	movl	$1, %edi
	call	_Z41__static_initialization_and_destruction_0ii
	popq	%rbp
	.cfi_def_cfa 7, 8
	ret
	.cfi_endproc
.LFE3878:
	.size	_GLOBAL__sub_I_level_counter, .-_GLOBAL__sub_I_level_counter
	.section	.init_array,"aw"
	.align 8
	.quad	_GLOBAL__sub_I_level_counter
	.section	.rodata
	.align 8
.LC10:
	.long	3435973837
	.long	1075629260
	.align 4
.LC15:
	.long	1108711834
	.text
.Letext0:
	.file 7 "/usr/include/c++/8/cwchar"
	.file 8 "/usr/include/c++/8/bits/char_traits.h"
	.file 9 "/usr/include/c++/8/x86_64-redhat-linux/bits/c++config.h"
	.file 10 "/usr/include/c++/8/clocale"
	.file 11 "/usr/include/c++/8/cstdlib"
	.file 12 "/usr/include/c++/8/bits/algorithmfwd.h"
	.file 13 "/usr/include/c++/8/bits/ios_base.h"
	.file 14 "/usr/include/c++/8/cwctype"
	.file 15 "/usr/include/c++/8/cstring"
	.file 16 "/usr/include/c++/8/cstdio"
	.file 17 "/usr/include/c++/8/ctime"
	.file 18 "/usr/include/c++/8/bits/std_abs.h"
	.file 19 "/usr/include/c++/8/cmath"
	.file 20 "/usr/include/c++/8/iosfwd"
	.file 21 "/usr/include/c++/8/new"
	.file 22 "/usr/include/c++/8/debug/debug.h"
	.file 23 "/usr/include/c++/8/bits/predefined_ops.h"
	.file 24 "/usr/include/c++/8/ext/new_allocator.h"
	.file 25 "/usr/include/c++/8/ext/numeric_traits.h"
	.file 26 "/usr/lib/gcc/x86_64-redhat-linux/8/include/stddef.h"
	.file 27 "<built-in>"
	.file 28 "/usr/include/bits/types/wint_t.h"
	.file 29 "/usr/include/bits/types/__mbstate_t.h"
	.file 30 "/usr/include/bits/types/mbstate_t.h"
	.file 31 "/usr/include/bits/types/__FILE.h"
	.file 32 "/usr/include/bits/types/struct_FILE.h"
	.file 33 "/usr/include/bits/types/FILE.h"
	.file 34 "/usr/include/wchar.h"
	.file 35 "/usr/include/bits/types/struct_tm.h"
	.file 36 "/usr/include/locale.h"
	.file 37 "/usr/include/bits/types.h"
	.file 38 "/usr/include/bits/types/time_t.h"
	.file 39 "/usr/include/bits/types/clock_t.h"
	.file 40 "/usr/include/time.h"
	.file 41 "/usr/include/c++/8/x86_64-redhat-linux/bits/atomic_word.h"
	.file 42 "/usr/include/unistd.h"
	.file 43 "/usr/include/bits/getopt_core.h"
	.file 44 "/usr/include/stdlib.h"
	.file 45 "/usr/include/bits/stdint-intn.h"
	.file 46 "./include/boost/config/detail/suffix.hpp"
	.file 47 "./include/boost/fusion/support/config.hpp"
	.file 48 "./include/boost/fusion/support/detail/enabler.hpp"
	.file 49 "./include/boost/fusion/support/is_sequence.hpp"
	.file 50 "./include/boost/fusion/adapted/struct/detail/extension.hpp"
	.file 51 "./include/boost/fusion/adapted/struct/detail/at_impl.hpp"
	.file 52 "./include/boost/fusion/support/tag_of_fwd.hpp"
	.file 53 "./include/boost/fusion/sequence/intrinsic_fwd.hpp"
	.file 54 "./include/boost/mpl/aux_/adl_barrier.hpp"
	.file 55 "./include/boost/mpl/begin_end_fwd.hpp"
	.file 56 "./include/boost/mpl/bool_fwd.hpp"
	.file 57 "./include/boost/mpl/integral_c_tag.hpp"
	.file 58 "./include/boost/type_traits/integral_constant.hpp"
	.file 59 "./include/boost/mpl/void_fwd.hpp"
	.file 60 "./include/boost/mpl/aux_/na_fwd.hpp"
	.file 61 "./include/boost/mpl/aux_/preprocessed/gcc/placeholders.hpp"
	.file 62 "./include/boost/type_traits/remove_reference.hpp"
	.file 63 "./include/boost/type_traits/aligned_storage.hpp"
	.file 64 "./include/boost/type_traits/detail/has_binary_operator.hpp"
	.file 65 "./include/boost/type_traits/detail/has_prefix_operator.hpp"
	.file 66 "./include/boost/type_traits/detail/has_postfix_operator.hpp"
	.file 67 "./include/boost/detail/indirect_traits.hpp"
	.file 68 "./include/boost/integer_traits.hpp"
	.file 69 "./include/boost/type_traits/add_reference.hpp"
	.file 70 "./include/boost/type_traits/detail/is_function_ptr_helper.hpp"
	.file 71 "./include/boost/type_traits/detail/yes_no_type.hpp"
	.file 72 "./include/boost/type_traits/integral_promotion.hpp"
	.file 73 "./include/boost/type_traits/type_with_alignment.hpp"
	.file 74 "./include/boost/type_traits/add_rvalue_reference.hpp"
	.file 75 "./include/boost/type_traits/is_noncopyable.hpp"
	.file 76 "./include/boost/iterator/iterator_traits.hpp"
	.file 77 "./include/boost/iterator/iterator_categories.hpp"
	.file 78 "./include/boost/iterator/detail/facade_iterator_category.hpp"
	.file 79 "./include/boost/iterator/iterator_facade.hpp"
	.file 80 "./include/boost/iterator/distance.hpp"
	.file 81 "./include/boost/iterator/iterator_adaptor.hpp"
	.file 82 "./include/boost/iterator/advance.hpp"
	.file 83 "./include/boost/core/use_default.hpp"
	.file 84 "./include/boost/range/begin.hpp"
	.file 85 "./include/boost/range/mutable_iterator.hpp"
	.file 86 "./include/boost/range/detail/sfinae.hpp"
	.file 87 "./include/boost/range/end.hpp"
	.file 88 "./include/boost/concept/detail/backward_compatibility.hpp"
	.file 89 "./include/boost/cstdint.hpp"
	.file 90 "./include/boost/range/distance.hpp"
	.file 91 "./include/boost/range/iterator_range_core.hpp"
	.file 92 "./include/boost/exception/exception.hpp"
	.file 93 "./include/boost/numeric/conversion/detail/meta.hpp"
	.file 94 "./include/boost/numeric/conversion/cast.hpp"
	.file 95 "./include/boost/container/container_fwd.hpp"
	.file 96 "./include/boost/math/tools/config.hpp"
	.file 97 "./include/boost/math/policies/policy.hpp"
	.file 98 "./include/boost/core/enable_if.hpp"
	.file 99 "./include/boost/mpl/bool.hpp"
	.file 100 "./include/boost/mpl/void.hpp"
	.file 101 "./include/boost/mpl/aux_/integral_wrapper.hpp"
	.file 102 "./include/boost/mpl/aux_/preprocessed/gcc/arg.hpp"
	.file 103 "/usr/include/bits/wctype-wchar.h"
	.file 104 "/usr/include/wctype.h"
	.file 105 "/usr/include/math.h"
	.file 106 "/usr/include/bits/stdint-uintn.h"
	.file 107 "/usr/include/stdint.h"
	.file 108 "/usr/include/string.h"
	.file 109 "/usr/include/bits/types/__fpos_t.h"
	.file 110 "/usr/include/stdio.h"
	.file 111 "/usr/include/bits/sys_errlist.h"
	.file 112 "/usr/include/c++/8/stdlib.h"
	.file 113 "/usr/include/c++/8/math.h"
	.file 114 "/usr/include/bits/mathcalls.h"
	.file 115 "/usr/include/c++/8/cxxabi.h"
	.file 116 "./include/boost/numeric/conversion/converter_policies.hpp"
	.section	.note.GNU-stack,"",@progbits
